ARM GAS  C:\Users\Luca\AppData\Local\Temp\cckNiJtJ.s 			page 1


   1              		.cpu cortex-m4
   2              		.eabi_attribute 27, 1
   3              		.eabi_attribute 28, 1
   4              		.eabi_attribute 20, 1
   5              		.eabi_attribute 21, 1
   6              		.eabi_attribute 23, 3
   7              		.eabi_attribute 24, 1
   8              		.eabi_attribute 25, 1
   9              		.eabi_attribute 26, 1
  10              		.eabi_attribute 30, 2
  11              		.eabi_attribute 34, 1
  12              		.eabi_attribute 18, 4
  13              		.file	"main.c"
  14              		.text
  15              	.Ltext0:
  16              		.cfi_sections	.debug_frame
  17              		.section	.text.startup.main,"ax",%progbits
  18              		.align	1
  19              		.p2align 4,,15
  20              		.global	main
  21              		.syntax unified
  22              		.thumb
  23              		.thumb_func
  24              		.fpu fpv4-sp-d16
  25              		.type	main, %function
  26              	main:
  27              	.LFB261:
  28              		.file 1 "main.c"
  29              		.loc 1 34 0
  30              		.cfi_startproc
  31              		@ Volatile: function does not return.
  32              		@ args = 0, pretend = 0, frame = 8
  33              		@ frame_needed = 0, uses_anonymous_args = 0
  34 0000 00B5     		push	{lr}
  35              		.cfi_def_cfa_offset 4
  36              		.cfi_offset 14, -4
  37 0002 144B     		ldr	r3, .L6
  38 0004 83B0     		sub	sp, sp, #12
  39              		.cfi_def_cfa_offset 16
  40              		.loc 1 34 0
  41 0006 1B68     		ldr	r3, [r3]
  42 0008 0193     		str	r3, [sp, #4]
  43              		.loc 1 36 0
  44 000a FFF7FEFF 		bl	halInit
  45              	.LVL0:
  46              		.loc 1 37 0
  47 000e FFF7FEFF 		bl	chSysInit
  48              	.LVL1:
  49              		.loc 1 38 0
  50 0012 FFF7FEFF 		bl	mpu_init
  51              	.LVL2:
  52              		.loc 1 41 0
  53 0016 FFF7FEFF 		bl	imu_start
  54              	.LVL3:
  55              		.loc 1 42 0
  56 001a FFF7FEFF 		bl	proximity_start
  57              	.LVL4:
ARM GAS  C:\Users\Luca\AppData\Local\Temp\cckNiJtJ.s 			page 2


  58              	.LBB4:
  59              	.LBB5:
  60              		.loc 1 30 0
  61 001e 0E49     		ldr	r1, .L6+4
  62 0020 0E48     		ldr	r0, .L6+8
  63 0022 FFF7FEFF 		bl	sdStart
  64              	.LVL5:
  65              	.LBE5:
  66              	.LBE4:
  67              		.loc 1 47 0
  68 0026 FFF7FEFF 		bl	motors_init
  69              	.LVL6:
  70              		.loc 1 50 0
  71 002a 0D4A     		ldr	r2, .L6+12
  72 002c 0D49     		ldr	r1, .L6+16
  73 002e 0E48     		ldr	r0, .L6+20
  74 0030 FFF7FEFF 		bl	messagebus_init
  75              	.LVL7:
  76              		.loc 1 53 0
  77 0034 4FF4FA60 		mov	r0, #2000
  78 0038 FFF7FEFF 		bl	chThdSleep
  79              	.LVL8:
  80              		.loc 1 56 0
  81 003c FFF7FEFF 		bl	calibrate_ir
  82              	.LVL9:
  83              		.loc 1 59 0
  84 0040 FFF7FEFF 		bl	calibrate_acc
  85              	.LVL10:
  86              		.loc 1 62 0
  87 0044 FFF7FEFF 		bl	motors_speed_start
  88              	.LVL11:
  89              	.L2:
  90              		.loc 1 71 0 discriminator 1
  91 0048 4FF47A70 		mov	r0, #1000
  92 004c FFF7FEFF 		bl	chThdSleep
  93              	.LVL12:
  94 0050 FAE7     		b	.L2
  95              	.L7:
  96 0052 00BF     		.align	2
  97              	.L6:
  98 0054 00000000 		.word	__stack_chk_guard
  99 0058 00000000 		.word	.LANCHOR0
 100 005c 00000000 		.word	SD3
 101 0060 00000000 		.word	.LANCHOR1
 102 0064 00000000 		.word	.LANCHOR2
 103 0068 00000000 		.word	.LANCHOR3
 104              		.cfi_endproc
 105              	.LFE261:
 106              		.size	main, .-main
 107              		.section	.text.__stack_chk_fail,"ax",%progbits
 108              		.align	1
 109              		.p2align 4,,15
 110              		.global	__stack_chk_fail
 111              		.syntax unified
 112              		.thumb
 113              		.thumb_func
 114              		.fpu fpv4-sp-d16
ARM GAS  C:\Users\Luca\AppData\Local\Temp\cckNiJtJ.s 			page 3


 115              		.type	__stack_chk_fail, %function
 116              	__stack_chk_fail:
 117              	.LFB262:
 118              		.loc 1 79 0
 119              		.cfi_startproc
 120              		@ args = 0, pretend = 0, frame = 8
 121              		@ frame_needed = 0, uses_anonymous_args = 0
 122 0000 00B5     		push	{lr}
 123              		.cfi_def_cfa_offset 4
 124              		.cfi_offset 14, -4
 125 0002 084B     		ldr	r3, .L13
 126 0004 83B0     		sub	sp, sp, #12
 127              		.cfi_def_cfa_offset 16
 128              		.loc 1 79 0
 129 0006 1A68     		ldr	r2, [r3]
 130 0008 0192     		str	r2, [sp, #4]
 131              		.loc 1 80 0
 132 000a 019A     		ldr	r2, [sp, #4]
 133 000c 1B68     		ldr	r3, [r3]
 134 000e 9A42     		cmp	r2, r3
 135 0010 05D1     		bne	.L12
 136 0012 0548     		ldr	r0, .L13+4
 137              		.loc 1 81 0
 138 0014 03B0     		add	sp, sp, #12
 139              		.cfi_remember_state
 140              		.cfi_def_cfa_offset 4
 141              		@ sp needed
 142 0016 5DF804EB 		ldr	lr, [sp], #4
 143              		.cfi_restore 14
 144              		.cfi_def_cfa_offset 0
 145              		.loc 1 80 0
 146 001a FFF7FEBF 		b	chSysHalt
 147              	.LVL13:
 148              	.L12:
 149              		.cfi_restore_state
 150 001e FFF7FEFF 		bl	__stack_chk_fail
 151              	.LVL14:
 152              	.L14:
 153 0022 00BF     		.align	2
 154              	.L13:
 155 0024 00000000 		.word	__stack_chk_guard
 156 0028 00000000 		.word	.LC0
 157              		.cfi_endproc
 158              	.LFE262:
 159              		.size	__stack_chk_fail, .-__stack_chk_fail
 160              		.global	__stack_chk_guard
 161              		.global	bus_condvar
 162              		.global	bus_lock
 163              		.global	bus
 164              		.section	.bss.bus,"aw",%nobits
 165              		.align	2
 166              		.set	.LANCHOR3,. + 0
 167              		.type	bus, %object
 168              		.size	bus, 12
 169              	bus:
 170 0000 00000000 		.space	12
 170      00000000 
ARM GAS  C:\Users\Luca\AppData\Local\Temp\cckNiJtJ.s 			page 4


 170      00000000 
 171              		.section	.data.__stack_chk_guard,"aw",%progbits
 172              		.align	2
 173              		.type	__stack_chk_guard, %object
 174              		.size	__stack_chk_guard, 4
 175              	__stack_chk_guard:
 176 0000 96E3DEE2 		.word	-488709226
 177              		.section	.data.bus_condvar,"aw",%progbits
 178              		.align	2
 179              		.set	.LANCHOR1,. + 0
 180              		.type	bus_condvar, %object
 181              		.size	bus_condvar, 8
 182              	bus_condvar:
 183 0000 00000000 		.word	bus_condvar
 184 0004 00000000 		.word	bus_condvar
 185              		.section	.data.bus_lock,"aw",%progbits
 186              		.align	2
 187              		.set	.LANCHOR2,. + 0
 188              		.type	bus_lock, %object
 189              		.size	bus_lock, 20
 190              	bus_lock:
 191 0000 00000000 		.word	bus_lock
 192 0004 00000000 		.word	bus_lock
 193 0008 00000000 		.word	0
 194 000c 00000000 		.word	0
 195 0010 00000000 		.word	0
 196              		.section	.data.ser_cfg.12865,"aw",%progbits
 197              		.align	2
 198              		.set	.LANCHOR0,. + 0
 199              		.type	ser_cfg.12865, %object
 200              		.size	ser_cfg.12865, 12
 201              	ser_cfg.12865:
 202 0000 00C20100 		.word	115200
 203 0004 0000     		.short	0
 204 0006 0000     		.short	0
 205 0008 0000     		.short	0
 206 000a 0000     		.space	2
 207              		.section	.rodata.__stack_chk_fail.str1.4,"aMS",%progbits,1
 208              		.align	2
 209              	.LC0:
 210 0000 53746163 		.ascii	"Stack smashing detected\000"
 210      6B20736D 
 210      61736869 
 210      6E672064 
 210      65746563 
 211              		.text
 212              	.Letext0:
 213              		.file 2 "c:\\users\\luca\\desktop\\eclipse_e-puck2_win32_29_jan_2020\\eclipse_e-puck2\\tools\\gcc-
 214              		.file 3 "c:\\users\\luca\\desktop\\eclipse_e-puck2_win32_29_jan_2020\\eclipse_e-puck2\\tools\\gcc-
 215              		.file 4 "c:\\users\\luca\\desktop\\eclipse_e-puck2_win32_29_jan_2020\\eclipse_e-puck2\\tools\\gcc-
 216              		.file 5 "c:\\users\\luca\\desktop\\eclipse_e-puck2_win32_29_jan_2020\\eclipse_e-puck2\\tools\\gcc-
 217              		.file 6 "c:\\users\\luca\\desktop\\eclipse_e-puck2_win32_29_jan_2020\\eclipse_e-puck2\\tools\\gcc-
 218              		.file 7 "c:\\users\\luca\\desktop\\eclipse_e-puck2_win32_29_jan_2020\\eclipse_e-puck2\\tools\\gcc-
 219              		.file 8 "c:\\users\\luca\\desktop\\eclipse_e-puck2_win32_29_jan_2020\\eclipse_e-puck2\\tools\\gcc-
 220              		.file 9 "c:\\users\\luca\\desktop\\eclipse_e-puck2_win32_29_jan_2020\\eclipse_e-puck2\\tools\\gcc-
 221              		.file 10 "../../lib/e-puck2_main-processor/ChibiOS//os/rt/ports/ARMCMx/compilers/GCC/chtypes.h"
 222              		.file 11 "../../lib/e-puck2_main-processor/ChibiOS//os/rt/include/chsystypes.h"
ARM GAS  C:\Users\Luca\AppData\Local\Temp\cckNiJtJ.s 			page 5


 223              		.file 12 "../../lib/e-puck2_main-processor/ChibiOS//os/rt/include/chschd.h"
 224              		.file 13 "../../lib/e-puck2_main-processor/ChibiOS//os/ext/CMSIS/include/core_cm4.h"
 225              		.file 14 "../../lib/e-puck2_main-processor/ChibiOS//os/ext/CMSIS/ST/system_stm32f4xx.h"
 226              		.file 15 "../../lib/e-puck2_main-processor/ChibiOS//os/ext/CMSIS/ST/stm32f407xx.h"
 227              		.file 16 "../../lib/e-puck2_main-processor/ChibiOS//os/rt/ports/ARMCMx/chcore.h"
 228              		.file 17 "../../lib/e-puck2_main-processor/ChibiOS//os/rt/ports/ARMCMx/chcore_v7m.h"
 229              		.file 18 "../../lib/e-puck2_main-processor/ChibiOS//os/rt/include/chdebug.h"
 230              		.file 19 "../../lib/e-puck2_main-processor/ChibiOS//os/rt/include/chtm.h"
 231              		.file 20 "../../lib/e-puck2_main-processor/ChibiOS//os/rt/include/chstats.h"
 232              		.file 21 "../../lib/e-puck2_main-processor/ChibiOS//os/rt/include/chsem.h"
 233              		.file 22 "../../lib/e-puck2_main-processor/ChibiOS//os/rt/include/chmtx.h"
 234              		.file 23 "../../lib/e-puck2_main-processor/ChibiOS//os/rt/include/chregistry.h"
 235              		.file 24 "../../lib/e-puck2_main-processor/ChibiOS//os/rt/include/chcond.h"
 236              		.file 25 "../../lib/e-puck2_main-processor/ChibiOS//os/rt/include/chevents.h"
 237              		.file 26 "../../lib/e-puck2_main-processor/ChibiOS//os/rt/include/chqueues.h"
 238              		.file 27 "../../lib/e-puck2_main-processor/ChibiOS//os/hal/ports/STM32/STM32F4xx/stm32_dma.h"
 239              		.file 28 "../../lib/e-puck2_main-processor/ChibiOS//os/hal/include/hal_ioblock.h"
 240              		.file 29 "../../lib/e-puck2_main-processor/ChibiOS//os/hal/ports/STM32/LLD/GPIOv2/pal_lld.h"
 241              		.file 30 "../../lib/e-puck2_main-processor/ChibiOS//os/hal/include/adc.h"
 242              		.file 31 "../../lib/e-puck2_main-processor/ChibiOS//os/hal/ports/STM32/STM32F4xx/adc_lld.h"
 243              		.file 32 "../../lib/e-puck2_main-processor/ChibiOS//os/hal/include/can.h"
 244              		.file 33 "../../lib/e-puck2_main-processor/ChibiOS//os/hal/ports/STM32/LLD/can_lld.h"
 245              		.file 34 "../../lib/e-puck2_main-processor/ChibiOS//os/hal/include/dac.h"
 246              		.file 35 "../../lib/e-puck2_main-processor/ChibiOS//os/hal/ports/STM32/LLD/DACv1/dac_lld.h"
 247              		.file 36 "../../lib/e-puck2_main-processor/ChibiOS//os/hal/include/ext.h"
 248              		.file 37 "../../lib/e-puck2_main-processor/ChibiOS//os/hal/ports/STM32/LLD/ext_lld.h"
 249              		.file 38 "../../lib/e-puck2_main-processor/ChibiOS//os/hal/include/gpt.h"
 250              		.file 39 "../../lib/e-puck2_main-processor/ChibiOS//os/hal/ports/STM32/LLD/TIMv1/gpt_lld.h"
 251              		.file 40 "../../lib/e-puck2_main-processor/ChibiOS//os/hal/ports/STM32/LLD/TIMv1/stm32_tim.h"
 252              		.file 41 "../../lib/e-puck2_main-processor/ChibiOS//os/hal/include/i2c.h"
 253              		.file 42 "../../lib/e-puck2_main-processor/ChibiOS//os/hal/ports/STM32/LLD/I2Cv1/i2c_lld.h"
 254              		.file 43 "../../lib/e-puck2_main-processor/ChibiOS//os/hal/include/i2s.h"
 255              		.file 44 "../../lib/e-puck2_main-processor/ChibiOS//os/hal/ports/STM32/LLD/SPIv1/i2s_lld.h"
 256              		.file 45 "../../lib/e-puck2_main-processor/ChibiOS//os/hal/include/pwm.h"
 257              		.file 46 "../../lib/e-puck2_main-processor/ChibiOS//os/hal/ports/STM32/LLD/TIMv1/pwm_lld.h"
 258              		.file 47 "../../lib/e-puck2_main-processor/ChibiOS//os/hal/include/serial.h"
 259              		.file 48 "../../lib/e-puck2_main-processor/ChibiOS//os/hal/ports/STM32/LLD/USARTv1/serial_lld.h"
 260              		.file 49 "../../lib/e-puck2_main-processor/ChibiOS//os/hal/include/sdc.h"
 261              		.file 50 "../../lib/e-puck2_main-processor/ChibiOS//os/hal/ports/STM32/LLD/sdc_lld.h"
 262              		.file 51 "../../lib/e-puck2_main-processor/ChibiOS//os/hal/include/spi.h"
 263              		.file 52 "../../lib/e-puck2_main-processor/ChibiOS//os/hal/ports/STM32/LLD/SPIv1/spi_lld.h"
 264              		.file 53 "../../lib/e-puck2_main-processor/ChibiOS//os/hal/include/usb.h"
 265              		.file 54 "../../lib/e-puck2_main-processor/ChibiOS//os/hal/ports/STM32/LLD/OTGv1/usb_lld.h"
 266              		.file 55 "../../lib/e-puck2_main-processor/ChibiOS//os/hal/ports/STM32/LLD/OTGv1/stm32_otg.h"
 267              		.file 56 "../../lib/e-puck2_main-processor/ChibiOS_ext/os/hal/include/../ports/STM32/STM32F4xx/dcm
 268              		.file 57 "c:\\users\\luca\\desktop\\eclipse_e-puck2_win32_29_jan_2020\\eclipse_e-puck2\\tools\\gcc
 269              		.file 58 "../../lib/e-puck2_main-processor/src/msgbus/messagebus.h"
 270              		.file 59 "../../lib/e-puck2_main-processor/src/parameter/parameter.h"
 271              		.file 60 "./main.h"
 272              		.file 61 "../../lib/e-puck2_main-processor/ChibiOS//os/rt/include/chsys.h"
 273              		.file 62 "../../lib/e-puck2_main-processor/ChibiOS//os/hal/include/hal.h"
 274              		.file 63 "../../lib/e-puck2_main-processor/src/memory_protection.h"
 275              		.file 64 "../../lib/e-puck2_main-processor/src/sensors/imu.h"
 276              		.file 65 "../../lib/e-puck2_main-processor/src/sensors/proximity.h"
 277              		.file 66 "../../lib/e-puck2_main-processor/src/motors.h"
 278              		.file 67 "../../lib/e-puck2_main-processor/ChibiOS//os/rt/include/chthreads.h"
 279              		.file 68 "./motors_speed.h"
ARM GAS  C:\Users\Luca\AppData\Local\Temp\cckNiJtJ.s 			page 6

