ARM GAS  C:\Users\Luca\AppData\Local\Temp\cc1HX5Yu.s 			page 1


   1              		.cpu cortex-m4
   2              		.eabi_attribute 27, 1
   3              		.eabi_attribute 28, 1
   4              		.eabi_attribute 20, 1
   5              		.eabi_attribute 21, 1
   6              		.eabi_attribute 23, 3
   7              		.eabi_attribute 24, 1
   8              		.eabi_attribute 25, 1
   9              		.eabi_attribute 26, 1
  10              		.eabi_attribute 30, 2
  11              		.eabi_attribute 34, 1
  12              		.eabi_attribute 18, 4
  13              		.file	"motors_speed.c"
  14              		.text
  15              	.Ltext0:
  16              		.cfi_sections	.debug_frame
  17              		.section	.text.Imu_mean_value,"ax",%progbits
  18              		.align	1
  19              		.p2align 4,,15
  20              		.syntax unified
  21              		.thumb
  22              		.thumb_func
  23              		.fpu fpv4-sp-d16
  24              		.type	Imu_mean_value, %function
  25              	Imu_mean_value:
  26              	.LFB261:
  27              		.file 1 "motors_speed.c"
  28              		.loc 1 163 0
  29              		.cfi_startproc
  30              		@ args = 0, pretend = 0, frame = 8
  31              		@ frame_needed = 0, uses_anonymous_args = 0
  32              	.LVL0:
  33 0000 2DE9F043 		push	{r4, r5, r6, r7, r8, r9, lr}
  34              		.cfi_def_cfa_offset 28
  35              		.cfi_offset 4, -28
  36              		.cfi_offset 5, -24
  37              		.cfi_offset 6, -20
  38              		.cfi_offset 7, -16
  39              		.cfi_offset 8, -12
  40              		.cfi_offset 9, -8
  41              		.cfi_offset 14, -4
  42 0004 2DED048B 		vpush.64	{d8, d9}
  43              		.cfi_def_cfa_offset 44
  44              		.cfi_offset 80, -44
  45              		.cfi_offset 81, -40
  46              		.cfi_offset 82, -36
  47              		.cfi_offset 83, -32
  48              	.LBB35:
  49              	.LBB36:
  50              		.file 2 "../../lib/e-puck2_main-processor/ChibiOS//os/rt/include/chregistry.h"
  51              		.loc 2 135 0
  52 0008 324A     		ldr	r2, .L9
  53              	.LBE36:
  54              	.LBE35:
  55              		.loc 1 163 0
  56 000a 334B     		ldr	r3, .L9+4
  57              	.LBB38:
ARM GAS  C:\Users\Luca\AppData\Local\Temp\cc1HX5Yu.s 			page 2


  58              	.LBB37:
  59              		.loc 2 135 0
  60 000c 9269     		ldr	r2, [r2, #24]
  61 000e 3349     		ldr	r1, .L9+8
  62 0010 9161     		str	r1, [r2, #24]
  63              	.LBE37:
  64              	.LBE38:
  65              		.loc 1 163 0
  66 0012 83B0     		sub	sp, sp, #12
  67              		.cfi_def_cfa_offset 56
  68              		.loc 1 163 0
  69 0014 1B68     		ldr	r3, [r3]
  70              		.loc 1 168 0
  71 0016 3249     		ldr	r1, .L9+12
  72 0018 3248     		ldr	r0, .L9+16
  73              	.LVL1:
  74              		.loc 1 163 0
  75 001a 0193     		str	r3, [sp, #4]
  76              		.loc 1 168 0
  77 001c FFF7FEFF 		bl	messagebus_find_topic_blocking
  78              	.LVL2:
  79 0020 314D     		ldr	r5, .L9+20
  80 0022 8046     		mov	r8, r0
  81              	.LVL3:
  82              	.LBB39:
  83              		.loc 1 184 0
  84 0024 0022     		movs	r2, #0
  85 0026 2B46     		mov	r3, r5
  86 0028 05F13C01 		add	r1, r5, #60
  87              	.LVL4:
  88              	.L2:
  89 002c 1A60     		str	r2, [r3]	@ float
  90              	.LVL5:
  91 002e 5A60     		str	r2, [r3, #4]	@ float
  92              	.LVL6:
  93 0030 9A60     		str	r2, [r3, #8]	@ float
  94              	.LVL7:
  95 0032 DA60     		str	r2, [r3, #12]	@ float
  96              	.LVL8:
  97 0034 1A61     		str	r2, [r3, #16]	@ float
  98              	.LVL9:
  99 0036 1433     		adds	r3, r3, #20
 100              		.loc 1 181 0
 101 0038 8B42     		cmp	r3, r1
 102 003a F7D1     		bne	.L2
 103              	.LBE39:
 104              		.loc 1 177 0
 105 003c 9FED2B8A 		vldr.32	s16, .L9+24
 106 0040 2B4E     		ldr	r6, .L9+28
 107 0042 DFF8B090 		ldr	r9, .L9+32
 108 0046 B0EE489A 		vmov.f32	s18, s16
 109 004a F0EE488A 		vmov.f32	s17, s16
 110              		.loc 1 191 0
 111 004e 3746     		mov	r7, r6
 112              		.loc 1 187 0
 113 0050 0024     		movs	r4, #0
 114              		.loc 1 209 0
ARM GAS  C:\Users\Luca\AppData\Local\Temp\cc1HX5Yu.s 			page 3


 115 0052 F1EE049A 		vmov.f32	s19, #5.0e+0
 116              	.LVL10:
 117              	.L3:
 118              		.loc 1 191 0
 119 0056 5022     		movs	r2, #80
 120 0058 3946     		mov	r1, r7
 121 005a 4046     		mov	r0, r8
 122 005c FFF7FEFF 		bl	messagebus_topic_wait
 123              	.LVL11:
 124              		.loc 1 195 0
 125 0060 621D     		adds	r2, r4, #5
 126              		.loc 1 196 0
 127 0062 04F10A03 		add	r3, r4, #10
 128              		.loc 1 194 0
 129 0066 05EB8401 		add	r1, r5, r4, lsl #2
 130              		.loc 1 195 0
 131 006a 05EB8202 		add	r2, r5, r2, lsl #2
 132              		.loc 1 196 0
 133 006e 05EB8303 		add	r3, r5, r3, lsl #2
 134 0072 D3ED005A 		vldr.32	s11, [r3]
 135              		.loc 1 194 0
 136 0076 91ED006A 		vldr.32	s12, [r1]
 137              		.loc 1 195 0
 138 007a 92ED005A 		vldr.32	s10, [r2]
 139              		.loc 1 199 0
 140 007e D6ED006A 		vldr.32	s13, [r6]
 141              		.loc 1 200 0
 142 0082 96ED017A 		vldr.32	s14, [r6, #4]
 143              		.loc 1 201 0
 144 0086 D6ED027A 		vldr.32	s15, [r6, #8]
 145              		.loc 1 199 0
 146 008a C1ED006A 		vstr.32	s13, [r1]
 147              		.loc 1 196 0
 148 008e 38EE658A 		vsub.f32	s16, s16, s11
 149              	.LVL12:
 150              		.loc 1 194 0
 151 0092 78EEC68A 		vsub.f32	s17, s17, s12
 152              	.LVL13:
 153              		.loc 1 195 0
 154 0096 39EE459A 		vsub.f32	s18, s18, s10
 155              	.LVL14:
 156              		.loc 1 204 0
 157 009a 76EEA88A 		vadd.f32	s17, s13, s17
 158              	.LVL15:
 159              		.loc 1 205 0
 160 009e 37EE099A 		vadd.f32	s18, s14, s18
 161              	.LVL16:
 162              		.loc 1 206 0
 163 00a2 37EE888A 		vadd.f32	s16, s15, s16
 164              	.LVL17:
 165              		.loc 1 210 0
 166 00a6 C9EE295A 		vdiv.f32	s11, s18, s19
 167              		.loc 1 213 0
 168 00aa 0134     		adds	r4, r4, #1
 169              	.LVL18:
 170 00ac E4B2     		uxtb	r4, r4
 171              	.LVL19:
ARM GAS  C:\Users\Luca\AppData\Local\Temp\cc1HX5Yu.s 			page 4


 172              		.loc 1 217 0
 173 00ae 052C     		cmp	r4, #5
 174 00b0 28BF     		it	cs
 175 00b2 0024     		movcs	r4, #0
 176              	.LVL20:
 177              		.loc 1 211 0
 178 00b4 88EE296A 		vdiv.f32	s12, s16, s19
 179              		.loc 1 209 0
 180 00b8 C8EEA96A 		vdiv.f32	s13, s17, s19
 181              		.loc 1 200 0
 182 00bc 82ED007A 		vstr.32	s14, [r2]
 183              		.loc 1 210 0
 184 00c0 C9ED015A 		vstr.32	s11, [r9, #4]
 185              		.loc 1 201 0
 186 00c4 C3ED007A 		vstr.32	s15, [r3]
 187              		.loc 1 211 0
 188 00c8 89ED026A 		vstr.32	s12, [r9, #8]
 189              		.loc 1 209 0
 190 00cc C9ED006A 		vstr.32	s13, [r9]
 191 00d0 C1E7     		b	.L3
 192              	.L10:
 193 00d2 00BF     		.align	2
 194              	.L9:
 195 00d4 00000000 		.word	ch
 196 00d8 00000000 		.word	__stack_chk_guard
 197 00dc 00000000 		.word	.LANCHOR0
 198 00e0 00000000 		.word	.LC0
 199 00e4 00000000 		.word	bus
 200 00e8 00000000 		.word	.LANCHOR1
 201 00ec 00000000 		.word	0
 202 00f0 00000000 		.word	.LANCHOR2
 203 00f4 00000000 		.word	.LANCHOR3
 204              		.cfi_endproc
 205              	.LFE261:
 206              		.size	Imu_mean_value, .-Imu_mean_value
 207              		.global	__aeabi_f2d
 208              		.global	__aeabi_dmul
 209              		.global	__aeabi_ddiv
 210              		.global	__aeabi_dsub
 211              		.global	__aeabi_d2f
 212              		.section	.text.speed_sum_acceleration,"ax",%progbits
 213              		.align	1
 214              		.p2align 4,,15
 215              		.global	speed_sum_acceleration
 216              		.syntax unified
 217              		.thumb
 218              		.thumb_func
 219              		.fpu fpv4-sp-d16
 220              		.type	speed_sum_acceleration, %function
 221              	speed_sum_acceleration:
 222              	.LFB257:
 223              		.loc 1 45 0
 224              		.cfi_startproc
 225              		@ args = 0, pretend = 0, frame = 8
 226              		@ frame_needed = 0, uses_anonymous_args = 0
 227              	.LVL21:
 228 0000 2DE97043 		push	{r4, r5, r6, r8, r9, lr}
ARM GAS  C:\Users\Luca\AppData\Local\Temp\cc1HX5Yu.s 			page 5


 229              		.cfi_def_cfa_offset 24
 230              		.cfi_offset 4, -24
 231              		.cfi_offset 5, -20
 232              		.cfi_offset 6, -16
 233              		.cfi_offset 8, -12
 234              		.cfi_offset 9, -8
 235              		.cfi_offset 14, -4
 236 0004 2DED028B 		vpush.64	{d8}
 237              		.cfi_def_cfa_offset 32
 238              		.cfi_offset 80, -32
 239              		.cfi_offset 81, -28
 240              		.loc 1 51 0
 241 0008 554B     		ldr	r3, .L45+16
 242              		.loc 1 45 0
 243 000a 564D     		ldr	r5, .L45+20
 244              		.loc 1 51 0
 245 000c 93ED018A 		vldr.32	s16, [r3, #4]
 246 0010 554C     		ldr	r4, .L45+24
 247              		.loc 1 45 0
 248 0012 2B68     		ldr	r3, [r5]
 249 0014 D4ED007A 		vldr.32	s15, [r4]
 250              		.loc 1 51 0
 251 0018 F0EEC86A 		vabs.f32	s13, s16
 252 001c B6EE007A 		vmov.f32	s14, #5.0e-1
 253              		.loc 1 45 0
 254 0020 82B0     		sub	sp, sp, #8
 255              		.cfi_def_cfa_offset 40
 256              		.loc 1 51 0
 257 0022 F4EEC76A 		vcmpe.f32	s13, s14
 258 0026 F1EE10FA 		vmrs	APSR_nzcv, FPSCR
 259              		.loc 1 45 0
 260 002a 0193     		str	r3, [sp, #4]
 261 002c 0646     		mov	r6, r0
 262              		.loc 1 51 0
 263 002e 39DD     		ble	.L37
 264              		.loc 1 52 0
 265 0030 17EE900A 		vmov	r0, s15
 266              	.LVL22:
 267 0034 FFF7FEFF 		bl	__aeabi_f2d
 268              	.LVL23:
 269 0038 8046     		mov	r8, r0
 270 003a 18EE100A 		vmov	r0, s16
 271 003e 8946     		mov	r9, r1
 272 0040 FFF7FEFF 		bl	__aeabi_f2d
 273              	.LVL24:
 274 0044 42A3     		adr	r3, .L45
 275 0046 D3E90023 		ldrd	r2, [r3]
 276 004a FFF7FEFF 		bl	__aeabi_dmul
 277              	.LVL25:
 278 004e 0022     		movs	r2, #0
 279 0050 464B     		ldr	r3, .L45+28
 280 0052 FFF7FEFF 		bl	__aeabi_ddiv
 281              	.LVL26:
 282 0056 0246     		mov	r2, r0
 283 0058 0B46     		mov	r3, r1
 284 005a 4046     		mov	r0, r8
 285 005c 4946     		mov	r1, r9
ARM GAS  C:\Users\Luca\AppData\Local\Temp\cc1HX5Yu.s 			page 6


 286 005e FFF7FEFF 		bl	__aeabi_dsub
 287              	.LVL27:
 288 0062 FFF7FEFF 		bl	__aeabi_d2f
 289              	.LVL28:
 290              		.loc 1 63 0
 291 0066 9FED427A 		vldr.32	s14, .L45+32
 292              		.loc 1 52 0
 293 006a 2060     		str	r0, [r4]	@ float
 294 006c 07EE900A 		vmov	s15, r0
 295              		.loc 1 63 0
 296 0070 F4EEC77A 		vcmpe.f32	s15, s14
 297 0074 F1EE10FA 		vmrs	APSR_nzcv, FPSCR
 298 0078 41DD     		ble	.L39
 299              	.L44:
 300              		.loc 1 64 0
 301 007a 84ED007A 		vstr.32	s14, [r4]
 302              		.loc 1 69 0
 303 007e F0EE477A 		vmov.f32	s15, s14
 304              	.L20:
 305              		.loc 1 69 0 is_stmt 0 discriminator 1
 306 0082 3368     		ldr	r3, [r6]
 307 0084 B3F5FA7F 		cmp	r3, #500
 308 0088 1AD9     		bls	.L26
 309              	.L28:
 310              		.loc 1 72 0 is_stmt 1
 311 008a 9FED3A0A 		vldr.32	s0, .L45+36
 312 008e 84ED000A 		vstr.32	s0, [r4]
 313              	.L11:
 314              		.loc 1 75 0
 315 0092 019A     		ldr	r2, [sp, #4]
 316 0094 2B68     		ldr	r3, [r5]
 317 0096 9A42     		cmp	r2, r3
 318 0098 4FD1     		bne	.L42
 319 009a 02B0     		add	sp, sp, #8
 320              		.cfi_remember_state
 321              		.cfi_def_cfa_offset 32
 322              		@ sp needed
 323 009c BDEC028B 		vldm	sp!, {d8}
 324              		.cfi_restore 80
 325              		.cfi_restore 81
 326              		.cfi_def_cfa_offset 24
 327 00a0 BDE87083 		pop	{r4, r5, r6, r8, r9, pc}
 328              	.LVL29:
 329              	.L37:
 330              		.cfi_restore_state
 331              		.loc 1 56 0
 332 00a4 B0EEE77A 		vabs.f32	s14, s15
 333 00a8 F2EE046A 		vmov.f32	s13, #1.0e+1
 334 00ac B4EEE67A 		vcmpe.f32	s14, s13
 335 00b0 F1EE10FA 		vmrs	APSR_nzcv, FPSCR
 336 00b4 0EDC     		bgt	.L43
 337              		.loc 1 59 0
 338 00b6 0023     		movs	r3, #0
 339 00b8 2360     		str	r3, [r4]	@ float
 340              	.LVL30:
 341              	.L30:
 342 00ba 94ED000A 		vldr.32	s0, [r4]
ARM GAS  C:\Users\Luca\AppData\Local\Temp\cc1HX5Yu.s 			page 7


 343 00be E8E7     		b	.L11
 344              	.L26:
 345              		.loc 1 69 0 discriminator 3
 346 00c0 F369     		ldr	r3, [r6, #28]
 347 00c2 B3F5FA7F 		cmp	r3, #500
 348 00c6 E0D8     		bhi	.L28
 349              	.L24:
 350              		.loc 1 69 0 is_stmt 0 discriminator 4
 351 00c8 F5EEC07A 		vcmpe.f32	s15, #0
 352 00cc F1EE10FA 		vmrs	APSR_nzcv, FPSCR
 353 00d0 F3D5     		bpl	.L30
 354 00d2 1DE0     		b	.L23
 355              	.LVL31:
 356              	.L43:
 357              		.loc 1 57 0 is_stmt 1
 358 00d4 17EE900A 		vmov	r0, s15
 359              	.LVL32:
 360 00d8 FFF7FEFF 		bl	__aeabi_f2d
 361              	.LVL33:
 362 00dc 1EA3     		adr	r3, .L45+8
 363 00de D3E90023 		ldrd	r2, [r3]
 364 00e2 FFF7FEFF 		bl	__aeabi_dmul
 365              	.LVL34:
 366 00e6 FFF7FEFF 		bl	__aeabi_d2f
 367              	.LVL35:
 368              		.loc 1 63 0
 369 00ea 9FED217A 		vldr.32	s14, .L45+32
 370              		.loc 1 57 0
 371 00ee 2060     		str	r0, [r4]	@ float
 372 00f0 07EE900A 		vmov	s15, r0
 373              		.loc 1 63 0
 374 00f4 F4EEC77A 		vcmpe.f32	s15, s14
 375 00f8 F1EE10FA 		vmrs	APSR_nzcv, FPSCR
 376 00fc BDDC     		bgt	.L44
 377              	.L39:
 378              		.loc 1 65 0
 379 00fe 9FED1E7A 		vldr.32	s14, .L45+40
 380 0102 F4EEC77A 		vcmpe.f32	s15, s14
 381 0106 F1EE10FA 		vmrs	APSR_nzcv, FPSCR
 382 010a 18D5     		bpl	.L40
 383              		.loc 1 66 0
 384 010c 84ED007A 		vstr.32	s14, [r4]
 385              	.L23:
 386 0110 D6E90323 		ldrd	r2, r3, [r6, #12]
 387              		.loc 1 70 0
 388 0114 B2F5FA7F 		cmp	r2, #500
 389 0118 07D9     		bls	.L29
 390              		.loc 1 70 0 is_stmt 0 discriminator 1
 391 011a B3F5FA7F 		cmp	r3, #500
 392 011e B4D8     		bhi	.L28
 393              		.loc 1 70 0 discriminator 3
 394 0120 B368     		ldr	r3, [r6, #8]
 395 0122 B3F5FA7F 		cmp	r3, #500
 396 0126 B0D3     		bcc	.L28
 397 0128 C7E7     		b	.L30
 398              	.L29:
 399              		.loc 1 70 0
ARM GAS  C:\Users\Luca\AppData\Local\Temp\cc1HX5Yu.s 			page 8


 400 012a B3F5FA7F 		cmp	r3, #500
 401 012e C4D9     		bls	.L30
 402              		.loc 1 71 0 is_stmt 1 discriminator 1
 403 0130 7369     		ldr	r3, [r6, #20]
 404 0132 B3F5FA7F 		cmp	r3, #500
 405 0136 A8D3     		bcc	.L28
 406 0138 BFE7     		b	.L30
 407              	.L42:
 408              		.loc 1 75 0
 409 013a FFF7FEFF 		bl	__stack_chk_fail
 410              	.LVL36:
 411              	.L40:
 412              		.loc 1 69 0
 413 013e F5EEC07A 		vcmpe.f32	s15, #0
 414 0142 F1EE10FA 		vmrs	APSR_nzcv, FPSCR
 415 0146 9CDC     		bgt	.L20
 416 0148 BEE7     		b	.L24
 417              	.L46:
 418 014a 00BFAFF3 		.align	3
 418      0080
 419              	.L45:
 420 0150 01991D62 		.word	1646106881
 421 0154 C2DF7840 		.word	1081663426
 422 0158 0022FDB6 		.word	-1224924672
 423 015c FA5CEF3F 		.word	1072651514
 424 0160 00000000 		.word	.LANCHOR3
 425 0164 00000000 		.word	__stack_chk_guard
 426 0168 00000000 		.word	.LANCHOR4
 427 016c 00004940 		.word	1078525952
 428 0170 00808944 		.word	1149861888
 429 0174 00000000 		.word	0
 430 0178 008089C4 		.word	-997621760
 431              		.cfi_endproc
 432              	.LFE257:
 433              		.size	speed_sum_acceleration, .-speed_sum_acceleration
 434              		.global	__aeabi_dadd
 435              		.section	.text.imu_rotation_regulator,"ax",%progbits
 436              		.align	1
 437              		.p2align 4,,15
 438              		.global	imu_rotation_regulator
 439              		.syntax unified
 440              		.thumb
 441              		.thumb_func
 442              		.fpu fpv4-sp-d16
 443              		.type	imu_rotation_regulator, %function
 444              	imu_rotation_regulator:
 445              	.LFB258:
 446              		.loc 1 78 0
 447              		.cfi_startproc
 448              		@ args = 0, pretend = 0, frame = 8
 449              		@ frame_needed = 0, uses_anonymous_args = 0
 450 0000 2DE9F043 		push	{r4, r5, r6, r7, r8, r9, lr}
 451              		.cfi_def_cfa_offset 28
 452              		.cfi_offset 4, -28
 453              		.cfi_offset 5, -24
 454              		.cfi_offset 6, -20
 455              		.cfi_offset 7, -16
ARM GAS  C:\Users\Luca\AppData\Local\Temp\cc1HX5Yu.s 			page 9


 456              		.cfi_offset 8, -12
 457              		.cfi_offset 9, -8
 458              		.cfi_offset 14, -4
 459 0004 2DED048B 		vpush.64	{d8, d9}
 460              		.cfi_def_cfa_offset 44
 461              		.cfi_offset 80, -44
 462              		.cfi_offset 81, -40
 463              		.cfi_offset 82, -36
 464              		.cfi_offset 83, -32
 465              		.loc 1 85 0
 466 0008 534B     		ldr	r3, .L67+16
 467              		.loc 1 78 0
 468 000a 544C     		ldr	r4, .L67+20
 469              		.loc 1 85 0
 470 000c D3ED008A 		vldr.32	s17, [r3]
 471              		.loc 1 84 0
 472 0010 534A     		ldr	r2, .L67+24
 473 0012 9FED540A 		vldr.32	s0, .L67+28
 474              		.loc 1 78 0
 475 0016 2168     		ldr	r1, [r4]
 476 0018 D3ED017A 		vldr.32	s15, [r3, #4]
 477              		.loc 1 84 0
 478 001c 82ED000A 		vstr.32	s0, [r2]
 479              		.loc 1 88 0
 480 0020 F0EEE86A 		vabs.f32	s13, s17
 481 0024 B6EE007A 		vmov.f32	s14, #5.0e-1
 482              		.loc 1 78 0
 483 0028 83B0     		sub	sp, sp, #12
 484              		.cfi_def_cfa_offset 56
 485              		.loc 1 88 0
 486 002a F4EEC76A 		vcmpe.f32	s13, s14
 487 002e F1EE10FA 		vmrs	APSR_nzcv, FPSCR
 488              		.loc 1 78 0
 489 0032 0191     		str	r1, [sp, #4]
 490              	.LVL37:
 491              		.loc 1 91 0
 492 0034 4C4D     		ldr	r5, .L67+32
 493              		.loc 1 88 0
 494 0036 1AD5     		bpl	.L61
 495              	.LVL38:
 496              		.loc 1 96 0
 497 0038 F4EEC07A 		vcmpe.f32	s15, s0
 498 003c F1EE10FA 		vmrs	APSR_nzcv, FPSCR
 499              		.loc 1 91 0
 500 0040 85ED000A 		vstr.32	s0, [r5]
 501              		.loc 1 96 0
 502 0044 4BDD     		ble	.L47
 503 0046 0026     		movs	r6, #0
 504 0048 4FF00047 		mov	r7, #-2147483648
 505 004c B0EE408A 		vmov.f32	s16, s0
 506 0050 B046     		mov	r8, r6
 507 0052 B946     		mov	r9, r7
 508              	.LVL39:
 509              	.L50:
 510 0054 78EE087A 		vadd.f32	s15, s16, s16
 511              		.loc 1 99 0
 512 0058 85ED008A 		vstr.32	s16, [r5]
ARM GAS  C:\Users\Luca\AppData\Local\Temp\cc1HX5Yu.s 			page 10


 513 005c 17EE900A 		vmov	r0, s15
 514 0060 FFF7FEFF 		bl	__aeabi_f2d
 515              	.LVL40:
 516 0064 4246     		mov	r2, r8
 517 0066 4B46     		mov	r3, r9
 518 0068 FFF7FEFF 		bl	__aeabi_dadd
 519              	.LVL41:
 520 006c 2FE0     		b	.L64
 521              	.LVL42:
 522              	.L61:
 523              		.loc 1 96 0
 524 006e F5EEC07A 		vcmpe.f32	s15, #0
 525 0072 F1EE10FA 		vmrs	APSR_nzcv, FPSCR
 526 0076 95ED000A 		vldr.32	s0, [r5]
 527 007a 4ADD     		ble	.L65
 528 007c B1EE689A 		vneg.f32	s18, s17
 529 0080 19EE100A 		vmov	r0, s18
 530 0084 30EE688A 		vsub.f32	s16, s0, s17
 531 0088 FFF7FEFF 		bl	__aeabi_f2d
 532              	.LVL43:
 533 008c 2EA3     		adr	r3, .L67
 534 008e D3E90023 		ldrd	r2, [r3]
 535 0092 FFF7FEFF 		bl	__aeabi_dmul
 536              	.LVL44:
 537 0096 F1EE047A 		vmov.f32	s15, #5.0e+0
 538 009a 69EE277A 		vmul.f32	s15, s18, s15
 539 009e 8046     		mov	r8, r0
 540 00a0 17EE900A 		vmov	r0, s15
 541 00a4 8946     		mov	r9, r1
 542 00a6 FFF7FEFF 		bl	__aeabi_f2d
 543              	.LVL45:
 544 00aa 0646     		mov	r6, r0
 545 00ac 0F46     		mov	r7, r1
 546              	.LVL46:
 547              	.L53:
 548              		.loc 1 102 0
 549 00ae DFED2F7A 		vldr.32	s15, .L67+36
 550 00b2 B4EEE78A 		vcmpe.f32	s16, s15
 551 00b6 F1EE10FA 		vmrs	APSR_nzcv, FPSCR
 552 00ba 19DD     		ble	.L62
 553              		.loc 1 103 0
 554 00bc C5ED007A 		vstr.32	s15, [r5]
 555 00c0 4046     		mov	r0, r8
 556 00c2 4946     		mov	r1, r9
 557 00c4 22A3     		adr	r3, .L67+8
 558 00c6 D3E90023 		ldrd	r2, [r3]
 559 00ca FFF7FEFF 		bl	__aeabi_dadd
 560              	.LVL47:
 561              	.L64:
 562 00ce 3246     		mov	r2, r6
 563 00d0 3B46     		mov	r3, r7
 564 00d2 FFF7FEFF 		bl	__aeabi_dadd
 565              	.LVL48:
 566 00d6 FFF7FEFF 		bl	__aeabi_d2f
 567              	.LVL49:
 568 00da 00EE100A 		vmov	s0, r0
 569              	.L47:
ARM GAS  C:\Users\Luca\AppData\Local\Temp\cc1HX5Yu.s 			page 11


 570              		.loc 1 108 0
 571 00de 019A     		ldr	r2, [sp, #4]
 572 00e0 2368     		ldr	r3, [r4]
 573 00e2 9A42     		cmp	r2, r3
 574 00e4 2DD1     		bne	.L66
 575 00e6 03B0     		add	sp, sp, #12
 576              		.cfi_remember_state
 577              		.cfi_def_cfa_offset 44
 578              		@ sp needed
 579 00e8 BDEC048B 		vldm	sp!, {d8-d9}
 580              		.cfi_restore 82
 581              		.cfi_restore 83
 582              		.cfi_restore 80
 583              		.cfi_restore 81
 584              		.cfi_def_cfa_offset 28
 585 00ec BDE8F083 		pop	{r4, r5, r6, r7, r8, r9, pc}
 586              	.L62:
 587              		.cfi_restore_state
 588              		.loc 1 104 0
 589 00f0 DFED1F7A 		vldr.32	s15, .L67+40
 590 00f4 B4EEE78A 		vcmpe.f32	s16, s15
 591 00f8 F1EE10FA 		vmrs	APSR_nzcv, FPSCR
 592 00fc AAD5     		bpl	.L50
 593              		.loc 1 105 0
 594 00fe C5ED007A 		vstr.32	s15, [r5]
 595 0102 4046     		mov	r0, r8
 596 0104 4946     		mov	r1, r9
 597 0106 12A3     		adr	r3, .L67+8
 598 0108 D3E90023 		ldrd	r2, [r3]
 599 010c FFF7FEFF 		bl	__aeabi_dsub
 600              	.LVL50:
 601 0110 DDE7     		b	.L64
 602              	.LVL51:
 603              	.L65:
 604 0112 18EE900A 		vmov	r0, s17
 605 0116 38EE808A 		vadd.f32	s16, s17, s0
 606 011a FFF7FEFF 		bl	__aeabi_f2d
 607              	.LVL52:
 608 011e 0AA3     		adr	r3, .L67
 609 0120 D3E90023 		ldrd	r2, [r3]
 610 0124 FFF7FEFF 		bl	__aeabi_dmul
 611              	.LVL53:
 612 0128 F1EE047A 		vmov.f32	s15, #5.0e+0
 613 012c 68EEA77A 		vmul.f32	s15, s17, s15
 614 0130 8046     		mov	r8, r0
 615 0132 17EE900A 		vmov	r0, s15
 616 0136 8946     		mov	r9, r1
 617 0138 FFF7FEFF 		bl	__aeabi_f2d
 618              	.LVL54:
 619 013c 0646     		mov	r6, r0
 620 013e 0F46     		mov	r7, r1
 621 0140 B5E7     		b	.L53
 622              	.LVL55:
 623              	.L66:
 624              		.loc 1 108 0
 625 0142 FFF7FEFF 		bl	__stack_chk_fail
 626              	.LVL56:
ARM GAS  C:\Users\Luca\AppData\Local\Temp\cc1HX5Yu.s 			page 12


 627              	.L68:
 628 0146 00BF     		.align	3
 629              	.L67:
 630 0148 AB106941 		.word	1097404587
 631 014c 2C958040 		.word	1082168620
 632 0150 00000000 		.word	0
 633 0154 0030B140 		.word	1085353984
 634 0158 00000000 		.word	.LANCHOR3
 635 015c 00000000 		.word	__stack_chk_guard
 636 0160 00000000 		.word	.LANCHOR5
 637 0164 00000000 		.word	0
 638 0168 00000000 		.word	.LANCHOR6
 639 016c 00800945 		.word	1158250496
 640 0170 008009C5 		.word	-989233152
 641              		.cfi_endproc
 642              	.LFE258:
 643              		.size	imu_rotation_regulator, .-imu_rotation_regulator
 644              		.section	.text.obstacle_detection,"ax",%progbits
 645              		.align	1
 646              		.p2align 4,,15
 647              		.global	obstacle_detection
 648              		.syntax unified
 649              		.thumb
 650              		.thumb_func
 651              		.fpu fpv4-sp-d16
 652              		.type	obstacle_detection, %function
 653              	obstacle_detection:
 654              	.LFB259:
 655              		.loc 1 113 0
 656              		.cfi_startproc
 657              		@ args = 0, pretend = 0, frame = 8
 658              		@ frame_needed = 0, uses_anonymous_args = 0
 659              	.LVL57:
 660 0000 00B5     		push	{lr}
 661              		.cfi_def_cfa_offset 4
 662              		.cfi_offset 14, -4
 663 0002 314B     		ldr	r3, .L98
 664 0004 83B0     		sub	sp, sp, #12
 665              		.cfi_def_cfa_offset 16
 666              		.loc 1 115 0
 667 0006 B5EEC00A 		vcmpe.f32	s0, #0
 668              		.loc 1 113 0
 669 000a 1A68     		ldr	r2, [r3]
 670 000c 0192     		str	r2, [sp, #4]
 671              		.loc 1 115 0
 672 000e F1EE10FA 		vmrs	APSR_nzcv, FPSCR
 673 0012 32DD     		ble	.L91
 674              		.loc 1 115 0 is_stmt 0 discriminator 1
 675 0014 8268     		ldr	r2, [r0, #8]
 676 0016 B2F5FA7F 		cmp	r2, #500
 677 001a 21D8     		bhi	.L72
 678              		.loc 1 115 0 discriminator 3
 679 001c 4268     		ldr	r2, [r0, #4]
 680 001e B2F5FA7F 		cmp	r2, #500
 681 0022 1DD8     		bhi	.L72
 682              		.loc 1 115 0
 683 0024 B5EEC00A 		vcmpe.f32	s0, #0
ARM GAS  C:\Users\Luca\AppData\Local\Temp\cc1HX5Yu.s 			page 13


 684 0028 F1EE10FA 		vmrs	APSR_nzcv, FPSCR
 685 002c 4269     		ldr	r2, [r0, #20]
 686 002e 0CD4     		bmi	.L81
 687              	.LVL58:
 688              	.LBB42:
 689              	.LBB43:
 690              		.loc 1 118 0 is_stmt 1
 691 0030 B2F5FA7F 		cmp	r2, #500
 692 0034 41D9     		bls	.L83
 693              	.LVL59:
 694              	.L79:
 695              		.loc 1 120 0
 696 0036 DFED257A 		vldr.32	s15, .L98+4
 697 003a B0EEC00A 		vabs.f32	s0, s0
 698              	.LVL60:
 699 003e 30EE270A 		vadd.f32	s0, s0, s15
 700 0042 B1EE400A 		vneg.f32	s0, s0
 701 0046 11E0     		b	.L69
 702              	.LVL61:
 703              	.L97:
 704 0048 4269     		ldr	r2, [r0, #20]
 705              	.L81:
 706              	.LBE43:
 707              	.LBE42:
 708              		.loc 1 116 0
 709 004a B2F5FA7F 		cmp	r2, #500
 710 004e 07D8     		bhi	.L72
 711              		.loc 1 116 0 is_stmt 0 discriminator 1
 712 0050 0269     		ldr	r2, [r0, #16]
 713 0052 B2F5FA7F 		cmp	r2, #500
 714 0056 19D9     		bls	.L76
 715              		.loc 1 116 0 discriminator 2
 716 0058 C268     		ldr	r2, [r0, #12]
 717 005a B2F5FA7F 		cmp	r2, #500
 718 005e 27D2     		bcs	.L77
 719              	.L72:
 720              		.loc 1 117 0 is_stmt 1
 721 0060 DFED1A7A 		vldr.32	s15, .L98+4
 722 0064 B0EEC00A 		vabs.f32	s0, s0
 723              	.LVL62:
 724 0068 30EE270A 		vadd.f32	s0, s0, s15
 725              	.L69:
 726              		.loc 1 123 0
 727 006c 019A     		ldr	r2, [sp, #4]
 728 006e 1B68     		ldr	r3, [r3]
 729 0070 9A42     		cmp	r2, r3
 730 0072 27D1     		bne	.L96
 731 0074 03B0     		add	sp, sp, #12
 732              		.cfi_remember_state
 733              		.cfi_def_cfa_offset 4
 734              		@ sp needed
 735 0076 5DF804FB 		ldr	pc, [sp], #4
 736              	.LVL63:
 737              	.L91:
 738              		.cfi_restore_state
 739              		.loc 1 115 0 discriminator 4
 740 007a E5D4     		bmi	.L97
ARM GAS  C:\Users\Luca\AppData\Local\Temp\cc1HX5Yu.s 			page 14


 741              	.L74:
 742              	.LBB45:
 743              	.LBB44:
 744              		.loc 1 118 0
 745 007c B5EEC00A 		vcmpe.f32	s0, #0
 746 0080 F1EE10FA 		vmrs	APSR_nzcv, FPSCR
 747 0084 07D4     		bmi	.L84
 748              	.L88:
 749              		.loc 1 122 0
 750 0086 9FED120A 		vldr.32	s0, .L98+8
 751              	.LVL64:
 752 008a EFE7     		b	.L69
 753              	.LVL65:
 754              	.L76:
 755              		.loc 1 118 0
 756 008c B5EEC00A 		vcmpe.f32	s0, #0
 757 0090 F1EE10FA 		vmrs	APSR_nzcv, FPSCR
 758 0094 11DC     		bgt	.L83
 759              	.LVL66:
 760              	.L84:
 761              		.loc 1 119 0
 762 0096 8268     		ldr	r2, [r0, #8]
 763 0098 B2F5FA7F 		cmp	r2, #500
 764 009c CBD8     		bhi	.L79
 765 009e C268     		ldr	r2, [r0, #12]
 766 00a0 B2F5FA7F 		cmp	r2, #500
 767 00a4 EFD9     		bls	.L88
 768 00a6 0269     		ldr	r2, [r0, #16]
 769 00a8 B2F5FA7F 		cmp	r2, #500
 770 00ac C3D3     		bcc	.L79
 771 00ae EAE7     		b	.L88
 772              	.L77:
 773              	.LVL67:
 774              		.loc 1 118 0
 775 00b0 B5EEC00A 		vcmpe.f32	s0, #0
 776 00b4 F1EE10FA 		vmrs	APSR_nzcv, FPSCR
 777 00b8 E0DD     		ble	.L74
 778              	.L83:
 779 00ba 8269     		ldr	r2, [r0, #24]
 780 00bc B2F5FA7F 		cmp	r2, #500
 781 00c0 B9D8     		bhi	.L79
 782 00c2 DBE7     		b	.L74
 783              	.LVL68:
 784              	.L96:
 785              	.LBE44:
 786              	.LBE45:
 787              		.loc 1 123 0
 788 00c4 FFF7FEFF 		bl	__stack_chk_fail
 789              	.LVL69:
 790              	.L99:
 791              		.align	2
 792              	.L98:
 793 00c8 00000000 		.word	__stack_chk_guard
 794 00cc 00004843 		.word	1128792064
 795 00d0 00000000 		.word	0
 796              		.cfi_endproc
 797              	.LFE259:
ARM GAS  C:\Users\Luca\AppData\Local\Temp\cc1HX5Yu.s 			page 15


 798              		.size	obstacle_detection, .-obstacle_detection
 799              		.section	.text.Motors_speed,"ax",%progbits
 800              		.align	1
 801              		.p2align 4,,15
 802              		.syntax unified
 803              		.thumb
 804              		.thumb_func
 805              		.fpu fpv4-sp-d16
 806              		.type	Motors_speed, %function
 807              	Motors_speed:
 808              	.LFB260:
 809              		.loc 1 127 0
 810              		.cfi_startproc
 811              		@ args = 0, pretend = 0, frame = 8
 812              		@ frame_needed = 0, uses_anonymous_args = 0
 813              	.LVL70:
 814 0000 2DE9F043 		push	{r4, r5, r6, r7, r8, r9, lr}
 815              		.cfi_def_cfa_offset 28
 816              		.cfi_offset 4, -28
 817              		.cfi_offset 5, -24
 818              		.cfi_offset 6, -20
 819              		.cfi_offset 7, -16
 820              		.cfi_offset 8, -12
 821              		.cfi_offset 9, -8
 822              		.cfi_offset 14, -4
 823              	.LBB62:
 824              	.LBB63:
 825              		.loc 2 135 0
 826 0004 2C4C     		ldr	r4, .L105
 827              	.LBE63:
 828              	.LBE62:
 829              		.loc 1 127 0
 830 0006 2D4B     		ldr	r3, .L105+4
 831              	.LBB66:
 832              	.LBB64:
 833              		.loc 2 135 0
 834 0008 A269     		ldr	r2, [r4, #24]
 835 000a 2D49     		ldr	r1, .L105+8
 836              	.LBE64:
 837              	.LBE66:
 838              		.loc 1 132 0
 839 000c 2D48     		ldr	r0, .L105+12
 840              	.LVL71:
 841              		.loc 1 147 0
 842 000e 2E4F     		ldr	r7, .L105+16
 843              	.LBB67:
 844              	.LBB68:
 845              	.LBB69:
 846              	.LBB70:
 847              		.file 3 "../../lib/e-puck2_main-processor/ChibiOS//os/rt/include/chsys.h"
 848              		.loc 3 367 0
 849 0010 DFF8BC90 		ldr	r9, .L105+24
 850              	.LBE70:
 851              	.LBE69:
 852              	.LBE68:
 853              	.LBE67:
 854              		.loc 1 127 0
ARM GAS  C:\Users\Luca\AppData\Local\Temp\cc1HX5Yu.s 			page 16


 855 0014 2DED028B 		vpush.64	{d8}
 856              		.cfi_def_cfa_offset 36
 857              		.cfi_offset 80, -36
 858              		.cfi_offset 81, -32
 859 0018 83B0     		sub	sp, sp, #12
 860              		.cfi_def_cfa_offset 48
 861              	.LBB84:
 862              	.LBB65:
 863              		.loc 2 135 0
 864 001a 9161     		str	r1, [r2, #24]
 865              	.LBE65:
 866              	.LBE84:
 867              		.loc 1 127 0
 868 001c 1B68     		ldr	r3, [r3]
 869              		.loc 1 132 0
 870 001e 2B49     		ldr	r1, .L105+20
 871              		.loc 1 127 0
 872 0020 0193     		str	r3, [sp, #4]
 873              		.loc 1 132 0
 874 0022 FFF7FEFF 		bl	messagebus_find_topic_blocking
 875              	.LVL72:
 876              		.loc 1 149 0
 877 0026 07F14005 		add	r5, r7, #64
 878              		.loc 1 132 0
 879 002a 8046     		mov	r8, r0
 880              	.LVL73:
 881              	.L102:
 882              	.LBB85:
 883              	.LBB83:
 884              	.LBB75:
 885              	.LBB76:
 886              	.LBB77:
 887              	.LBB78:
 888              	.LBB79:
 889              		.file 4 "../../lib/e-puck2_main-processor/ChibiOS//os/ext/CMSIS/include/core_cmFunc.h"
 890              		.loc 4 546 0 discriminator 1
 891 002c 2023     		movs	r3, #32
 892              		.syntax unified
 893              	@ 546 "../../lib/e-puck2_main-processor/ChibiOS//os/ext/CMSIS/include/core_cmFunc.h" 1
 894 002e 83F31188 		MSR basepri, r3
 895              	@ 0 "" 2
 896              	.LVL74:
 897              		.thumb
 898              		.syntax unified
 899              	.LBE79:
 900              	.LBE78:
 901              	.LBE77:
 902              		.loc 3 349 0 discriminator 1
 903 0032 FFF7FEFF 		bl	_stats_start_measure_crit_thd
 904              	.LVL75:
 905              		.loc 3 350 0 discriminator 1
 906 0036 FFF7FEFF 		bl	_dbg_check_lock
 907              	.LVL76:
 908              	.LBE76:
 909              	.LBE75:
 910              	.LBB80:
 911              	.LBB81:
ARM GAS  C:\Users\Luca\AppData\Local\Temp\cc1HX5Yu.s 			page 17


 912              		.file 5 "../../lib/e-puck2_main-processor/ChibiOS//os/rt/include/chvt.h"
 913              		.loc 5 231 0 discriminator 1
 914 003a A66A     		ldr	r6, [r4, #40]
 915              	.LBE81:
 916              	.LBE80:
 917              	.LBB82:
 918              	.LBB74:
 919              		.loc 3 360 0 discriminator 1
 920 003c FFF7FEFF 		bl	_dbg_check_unlock
 921              	.LVL77:
 922              		.loc 3 361 0 discriminator 1
 923 0040 FFF7FEFF 		bl	_stats_stop_measure_crit_thd
 924              	.LVL78:
 925              		.loc 3 367 0 discriminator 1
 926 0044 2368     		ldr	r3, [r4]
 927 0046 A342     		cmp	r3, r4
 928 0048 07D0     		beq	.L101
 929              		.loc 3 367 0 is_stmt 0
 930 004a A269     		ldr	r2, [r4, #24]
 931 004c 9B68     		ldr	r3, [r3, #8]
 932 004e 9268     		ldr	r2, [r2, #8]
 933 0050 9A42     		cmp	r2, r3
 934 0052 02D2     		bcs	.L101
 935 0054 4846     		mov	r0, r9
 936 0056 FFF7FEFF 		bl	chSysHalt
 937              	.LVL79:
 938              	.L101:
 939              	.LBB71:
 940              	.LBB72:
 941              	.LBB73:
 942              		.loc 4 546 0 is_stmt 1
 943 005a 0023     		movs	r3, #0
 944              		.syntax unified
 945              	@ 546 "../../lib/e-puck2_main-processor/ChibiOS//os/ext/CMSIS/include/core_cmFunc.h" 1
 946 005c 83F31188 		MSR basepri, r3
 947              	@ 0 "" 2
 948              	.LVL80:
 949              		.thumb
 950              		.syntax unified
 951              	.LBE73:
 952              	.LBE72:
 953              	.LBE71:
 954              	.LBE74:
 955              	.LBE82:
 956              	.LBE83:
 957              	.LBE85:
 958              		.loc 1 147 0
 959 0060 8022     		movs	r2, #128
 960 0062 3946     		mov	r1, r7
 961 0064 4046     		mov	r0, r8
 962 0066 FFF7FEFF 		bl	messagebus_topic_wait
 963              	.LVL81:
 964              		.loc 1 149 0
 965 006a 2846     		mov	r0, r5
 966 006c FFF7FEFF 		bl	speed_sum_acceleration
 967              	.LVL82:
 968 0070 B0EE408A 		vmov.f32	s16, s0
ARM GAS  C:\Users\Luca\AppData\Local\Temp\cc1HX5Yu.s 			page 18


 969              	.LVL83:
 970              		.loc 1 151 0
 971 0074 FFF7FEFF 		bl	imu_rotation_regulator
 972              	.LVL84:
 973 0078 2846     		mov	r0, r5
 974 007a F0EE408A 		vmov.f32	s17, s0
 975 007e B0EE480A 		vmov.f32	s0, s16
 976 0082 FFF7FEFF 		bl	obstacle_detection
 977              	.LVL85:
 978 0086 78EE808A 		vadd.f32	s17, s17, s0
 979              	.LVL86:
 980              		.loc 1 153 0
 981 008a 78EE287A 		vadd.f32	s15, s16, s17
 982 008e FDEEE77A 		vcvt.s32.f32	s15, s15
 983 0092 17EE903A 		vmov	r3, s15	@ int
 984 0096 18B2     		sxth	r0, r3
 985 0098 FFF7FEFF 		bl	right_motor_set_speed
 986              	.LVL87:
 987              		.loc 1 154 0
 988 009c 38EE688A 		vsub.f32	s16, s16, s17
 989              	.LVL88:
 990 00a0 BDEEC88A 		vcvt.s32.f32	s16, s16
 991 00a4 18EE103A 		vmov	r3, s16	@ int
 992 00a8 18B2     		sxth	r0, r3
 993 00aa FFF7FEFF 		bl	left_motor_set_speed
 994              	.LVL89:
 995              		.loc 1 157 0
 996 00ae 3146     		mov	r1, r6
 997 00b0 3046     		mov	r0, r6
 998 00b2 FFF7FEFF 		bl	chThdSleepUntilWindowed
 999              	.LVL90:
 1000 00b6 B9E7     		b	.L102
 1001              	.L106:
 1002              		.align	2
 1003              	.L105:
 1004 00b8 00000000 		.word	ch
 1005 00bc 00000000 		.word	__stack_chk_guard
 1006 00c0 00000000 		.word	.LANCHOR7
 1007 00c4 00000000 		.word	bus
 1008 00c8 00000000 		.word	.LANCHOR9
 1009 00cc 00000000 		.word	.LC1
 1010 00d0 00000000 		.word	.LANCHOR8
 1011              		.cfi_endproc
 1012              	.LFE260:
 1013              		.size	Motors_speed, .-Motors_speed
 1014              		.section	.text.motors_speed_start,"ax",%progbits
 1015              		.align	1
 1016              		.p2align 4,,15
 1017              		.global	motors_speed_start
 1018              		.syntax unified
 1019              		.thumb
 1020              		.thumb_func
 1021              		.fpu fpv4-sp-d16
 1022              		.type	motors_speed_start, %function
 1023              	motors_speed_start:
 1024              	.LFB262:
 1025              		.loc 1 222 0
ARM GAS  C:\Users\Luca\AppData\Local\Temp\cc1HX5Yu.s 			page 19


 1026              		.cfi_startproc
 1027              		@ args = 0, pretend = 0, frame = 8
 1028              		@ frame_needed = 0, uses_anonymous_args = 0
 1029 0000 30B5     		push	{r4, r5, lr}
 1030              		.cfi_def_cfa_offset 12
 1031              		.cfi_offset 4, -12
 1032              		.cfi_offset 5, -8
 1033              		.cfi_offset 14, -4
 1034 0002 0E4C     		ldr	r4, .L111
 1035              		.loc 1 224 0
 1036 0004 0E4B     		ldr	r3, .L111+4
 1037              		.loc 1 222 0
 1038 0006 2268     		ldr	r2, [r4]
 1039              		.loc 1 224 0
 1040 0008 0E48     		ldr	r0, .L111+8
 1041              		.loc 1 222 0
 1042 000a 85B0     		sub	sp, sp, #20
 1043              		.cfi_def_cfa_offset 32
 1044              		.loc 1 224 0
 1045 000c 0025     		movs	r5, #0
 1046              		.loc 1 222 0
 1047 000e 0392     		str	r2, [sp, #12]
 1048              		.loc 1 224 0
 1049 0010 4FF41E71 		mov	r1, #632
 1050 0014 4022     		movs	r2, #64
 1051 0016 0095     		str	r5, [sp]
 1052 0018 FFF7FEFF 		bl	chThdCreateStatic
 1053              	.LVL91:
 1054              		.loc 1 225 0
 1055 001c 0A4B     		ldr	r3, .L111+12
 1056 001e 0095     		str	r5, [sp]
 1057 0020 4022     		movs	r2, #64
 1058 0022 0A48     		ldr	r0, .L111+16
 1059 0024 4FF45E71 		mov	r1, #888
 1060 0028 FFF7FEFF 		bl	chThdCreateStatic
 1061              	.LVL92:
 1062              		.loc 1 226 0
 1063 002c 039A     		ldr	r2, [sp, #12]
 1064 002e 2368     		ldr	r3, [r4]
 1065 0030 9A42     		cmp	r2, r3
 1066 0032 01D1     		bne	.L110
 1067 0034 05B0     		add	sp, sp, #20
 1068              		.cfi_remember_state
 1069              		.cfi_def_cfa_offset 12
 1070              		@ sp needed
 1071 0036 30BD     		pop	{r4, r5, pc}
 1072              	.L110:
 1073              		.cfi_restore_state
 1074 0038 FFF7FEFF 		bl	__stack_chk_fail
 1075              	.LVL93:
 1076              	.L112:
 1077              		.align	2
 1078              	.L111:
 1079 003c 00000000 		.word	__stack_chk_guard
 1080 0040 00000000 		.word	Motors_speed
 1081 0044 00000000 		.word	.LANCHOR10
 1082 0048 00000000 		.word	Imu_mean_value
ARM GAS  C:\Users\Luca\AppData\Local\Temp\cc1HX5Yu.s 			page 20


 1083 004c 00000000 		.word	.LANCHOR11
 1084              		.cfi_endproc
 1085              	.LFE262:
 1086              		.size	motors_speed_start, .-motors_speed_start
 1087              		.section	.bss.accel_sample.11964,"aw",%nobits
 1088              		.align	2
 1089              		.set	.LANCHOR1,. + 0
 1090              		.type	accel_sample.11964, %object
 1091              		.size	accel_sample.11964, 60
 1092              	accel_sample.11964:
 1093 0000 00000000 		.space	60
 1093      00000000 
 1093      00000000 
 1093      00000000 
 1093      00000000 
 1094              		.section	.bss.imu_values.11962,"aw",%nobits
 1095              		.align	2
 1096              		.set	.LANCHOR2,. + 0
 1097              		.type	imu_values.11962, %object
 1098              		.size	imu_values.11962, 80
 1099              	imu_values.11962:
 1100 0000 00000000 		.space	80
 1100      00000000 
 1100      00000000 
 1100      00000000 
 1100      00000000 
 1101              		.section	.bss.mean_accel,"aw",%nobits
 1102              		.align	2
 1103              		.set	.LANCHOR3,. + 0
 1104              		.type	mean_accel, %object
 1105              		.size	mean_accel, 12
 1106              	mean_accel:
 1107 0000 00000000 		.space	12
 1107      00000000 
 1107      00000000 
 1108              		.section	.bss.previous_error.11939,"aw",%nobits
 1109              		.align	2
 1110              		.set	.LANCHOR5,. + 0
 1111              		.type	previous_error.11939, %object
 1112              		.size	previous_error.11939, 4
 1113              	previous_error.11939:
 1114 0000 00000000 		.space	4
 1115              		.section	.bss.prox_values.11950,"aw",%nobits
 1116              		.align	2
 1117              		.set	.LANCHOR9,. + 0
 1118              		.type	prox_values.11950, %object
 1119              		.size	prox_values.11950, 128
 1120              	prox_values.11950:
 1121 0000 00000000 		.space	128
 1121      00000000 
 1121      00000000 
 1121      00000000 
 1121      00000000 
 1122              		.section	.bss.speed.11933,"aw",%nobits
 1123              		.align	2
 1124              		.set	.LANCHOR4,. + 0
 1125              		.type	speed.11933, %object
ARM GAS  C:\Users\Luca\AppData\Local\Temp\cc1HX5Yu.s 			page 21


 1126              		.size	speed.11933, 4
 1127              	speed.11933:
 1128 0000 00000000 		.space	4
 1129              		.section	.bss.sum_error.11938,"aw",%nobits
 1130              		.align	2
 1131              		.set	.LANCHOR6,. + 0
 1132              		.type	sum_error.11938, %object
 1133              		.size	sum_error.11938, 4
 1134              	sum_error.11938:
 1135 0000 00000000 		.space	4
 1136              		.section	.bss.waImu_mean_value,"aw",%nobits
 1137              		.align	3
 1138              		.set	.LANCHOR11,. + 0
 1139              		.type	waImu_mean_value, %object
 1140              		.size	waImu_mean_value, 888
 1141              	waImu_mean_value:
 1142 0000 00000000 		.space	888
 1142      00000000 
 1142      00000000 
 1142      00000000 
 1142      00000000 
 1143              		.section	.bss.waMotors_speed,"aw",%nobits
 1144              		.align	3
 1145              		.set	.LANCHOR10,. + 0
 1146              		.type	waMotors_speed, %object
 1147              		.size	waMotors_speed, 632
 1148              	waMotors_speed:
 1149 0000 00000000 		.space	632
 1149      00000000 
 1149      00000000 
 1149      00000000 
 1149      00000000 
 1150              		.section	.rodata.Imu_mean_value.str1.4,"aMS",%progbits,1
 1151              		.align	2
 1152              	.LC0:
 1153 0000 2F696D75 		.ascii	"/imu\000"
 1153      00
 1154              		.section	.rodata.Motors_speed.str1.4,"aMS",%progbits,1
 1155              		.align	2
 1156              	.LC1:
 1157 0000 2F70726F 		.ascii	"/proximity\000"
 1157      78696D69 
 1157      747900
 1158              		.section	.rodata.__FUNCTION__.11948,"a",%progbits
 1159              		.align	2
 1160              		.set	.LANCHOR7,. + 0
 1161              		.type	__FUNCTION__.11948, %object
 1162              		.size	__FUNCTION__.11948, 13
 1163              	__FUNCTION__.11948:
 1164 0000 4D6F746F 		.ascii	"Motors_speed\000"
 1164      72735F73 
 1164      70656564 
 1164      00
 1165              		.section	.rodata.__FUNCTION__.11960,"a",%progbits
 1166              		.align	2
 1167              		.set	.LANCHOR0,. + 0
 1168              		.type	__FUNCTION__.11960, %object
ARM GAS  C:\Users\Luca\AppData\Local\Temp\cc1HX5Yu.s 			page 22


 1169              		.size	__FUNCTION__.11960, 15
 1170              	__FUNCTION__.11960:
 1171 0000 496D755F 		.ascii	"Imu_mean_value\000"
 1171      6D65616E 
 1171      5F76616C 
 1171      756500
 1172              		.section	.rodata.__func__.7153,"a",%progbits
 1173              		.align	2
 1174              		.set	.LANCHOR8,. + 0
 1175              		.type	__func__.7153, %object
 1176              		.size	__func__.7153, 12
 1177              	__func__.7153:
 1178 0000 63685379 		.ascii	"chSysUnlock\000"
 1178      73556E6C 
 1178      6F636B00 
 1179              		.text
 1180              	.Letext0:
 1181              		.file 6 "c:\\users\\luca\\desktop\\eclipse_e-puck2_win32_29_jan_2020\\eclipse_e-puck2\\tools\\gcc-
 1182              		.file 7 "c:\\users\\luca\\desktop\\eclipse_e-puck2_win32_29_jan_2020\\eclipse_e-puck2\\tools\\gcc-
 1183              		.file 8 "c:\\users\\luca\\desktop\\eclipse_e-puck2_win32_29_jan_2020\\eclipse_e-puck2\\tools\\gcc-
 1184              		.file 9 "../../lib/e-puck2_main-processor/ChibiOS//os/rt/ports/ARMCMx/compilers/GCC/chtypes.h"
 1185              		.file 10 "../../lib/e-puck2_main-processor/ChibiOS//os/rt/include/chsystypes.h"
 1186              		.file 11 "../../lib/e-puck2_main-processor/ChibiOS//os/rt/include/chschd.h"
 1187              		.file 12 "../../lib/e-puck2_main-processor/ChibiOS//os/ext/CMSIS/include/core_cm4.h"
 1188              		.file 13 "../../lib/e-puck2_main-processor/ChibiOS//os/ext/CMSIS/ST/system_stm32f4xx.h"
 1189              		.file 14 "../../lib/e-puck2_main-processor/ChibiOS//os/ext/CMSIS/ST/stm32f407xx.h"
 1190              		.file 15 "../../lib/e-puck2_main-processor/ChibiOS//os/rt/ports/ARMCMx/chcore.h"
 1191              		.file 16 "../../lib/e-puck2_main-processor/ChibiOS//os/rt/ports/ARMCMx/chcore_v7m.h"
 1192              		.file 17 "../../lib/e-puck2_main-processor/ChibiOS//os/rt/include/chdebug.h"
 1193              		.file 18 "../../lib/e-puck2_main-processor/ChibiOS//os/rt/include/chtm.h"
 1194              		.file 19 "../../lib/e-puck2_main-processor/ChibiOS//os/rt/include/chstats.h"
 1195              		.file 20 "../../lib/e-puck2_main-processor/ChibiOS//os/rt/include/chsem.h"
 1196              		.file 21 "../../lib/e-puck2_main-processor/ChibiOS//os/rt/include/chmtx.h"
 1197              		.file 22 "../../lib/e-puck2_main-processor/ChibiOS//os/rt/include/chevents.h"
 1198              		.file 23 "../../lib/e-puck2_main-processor/ChibiOS//os/rt/include/chqueues.h"
 1199              		.file 24 "../../lib/e-puck2_main-processor/ChibiOS//os/hal/ports/STM32/STM32F4xx/stm32_dma.h"
 1200              		.file 25 "../../lib/e-puck2_main-processor/ChibiOS//os/hal/include/hal_ioblock.h"
 1201              		.file 26 "../../lib/e-puck2_main-processor/ChibiOS//os/hal/ports/STM32/LLD/GPIOv2/pal_lld.h"
 1202              		.file 27 "../../lib/e-puck2_main-processor/ChibiOS//os/hal/include/adc.h"
 1203              		.file 28 "../../lib/e-puck2_main-processor/ChibiOS//os/hal/ports/STM32/STM32F4xx/adc_lld.h"
 1204              		.file 29 "../../lib/e-puck2_main-processor/ChibiOS//os/hal/include/can.h"
 1205              		.file 30 "../../lib/e-puck2_main-processor/ChibiOS//os/hal/ports/STM32/LLD/can_lld.h"
 1206              		.file 31 "../../lib/e-puck2_main-processor/ChibiOS//os/hal/include/dac.h"
 1207              		.file 32 "../../lib/e-puck2_main-processor/ChibiOS//os/hal/ports/STM32/LLD/DACv1/dac_lld.h"
 1208              		.file 33 "../../lib/e-puck2_main-processor/ChibiOS//os/hal/include/ext.h"
 1209              		.file 34 "../../lib/e-puck2_main-processor/ChibiOS//os/hal/ports/STM32/LLD/ext_lld.h"
 1210              		.file 35 "../../lib/e-puck2_main-processor/ChibiOS//os/hal/include/gpt.h"
 1211              		.file 36 "../../lib/e-puck2_main-processor/ChibiOS//os/hal/ports/STM32/LLD/TIMv1/gpt_lld.h"
 1212              		.file 37 "../../lib/e-puck2_main-processor/ChibiOS//os/hal/ports/STM32/LLD/TIMv1/stm32_tim.h"
 1213              		.file 38 "../../lib/e-puck2_main-processor/ChibiOS//os/hal/include/i2c.h"
 1214              		.file 39 "../../lib/e-puck2_main-processor/ChibiOS//os/hal/ports/STM32/LLD/I2Cv1/i2c_lld.h"
 1215              		.file 40 "../../lib/e-puck2_main-processor/ChibiOS//os/hal/include/i2s.h"
 1216              		.file 41 "../../lib/e-puck2_main-processor/ChibiOS//os/hal/ports/STM32/LLD/SPIv1/i2s_lld.h"
 1217              		.file 42 "../../lib/e-puck2_main-processor/ChibiOS//os/hal/include/pwm.h"
 1218              		.file 43 "../../lib/e-puck2_main-processor/ChibiOS//os/hal/ports/STM32/LLD/TIMv1/pwm_lld.h"
 1219              		.file 44 "../../lib/e-puck2_main-processor/ChibiOS//os/hal/include/serial.h"
 1220              		.file 45 "../../lib/e-puck2_main-processor/ChibiOS//os/hal/ports/STM32/LLD/USARTv1/serial_lld.h"
ARM GAS  C:\Users\Luca\AppData\Local\Temp\cc1HX5Yu.s 			page 23


 1221              		.file 46 "../../lib/e-puck2_main-processor/ChibiOS//os/hal/include/sdc.h"
 1222              		.file 47 "../../lib/e-puck2_main-processor/ChibiOS//os/hal/ports/STM32/LLD/sdc_lld.h"
 1223              		.file 48 "../../lib/e-puck2_main-processor/ChibiOS//os/hal/include/spi.h"
 1224              		.file 49 "../../lib/e-puck2_main-processor/ChibiOS//os/hal/ports/STM32/LLD/SPIv1/spi_lld.h"
 1225              		.file 50 "../../lib/e-puck2_main-processor/ChibiOS//os/hal/include/usb.h"
 1226              		.file 51 "../../lib/e-puck2_main-processor/ChibiOS//os/hal/ports/STM32/LLD/OTGv1/usb_lld.h"
 1227              		.file 52 "../../lib/e-puck2_main-processor/ChibiOS//os/hal/ports/STM32/LLD/OTGv1/stm32_otg.h"
 1228              		.file 53 "../../lib/e-puck2_main-processor/ChibiOS//os/hal/include/serial_usb.h"
 1229              		.file 54 "c:\\users\\luca\\desktop\\eclipse_e-puck2_win32_29_jan_2020\\eclipse_e-puck2\\tools\\gcc
 1230              		.file 55 "c:\\users\\luca\\desktop\\eclipse_e-puck2_win32_29_jan_2020\\eclipse_e-puck2\\tools\\gcc
 1231              		.file 56 "c:\\users\\luca\\desktop\\eclipse_e-puck2_win32_29_jan_2020\\eclipse_e-puck2\\tools\\gcc
 1232              		.file 57 "c:\\users\\luca\\desktop\\eclipse_e-puck2_win32_29_jan_2020\\eclipse_e-puck2\\tools\\gcc
 1233              		.file 58 "../../lib/e-puck2_main-processor/src/usbcfg.h"
 1234              		.file 59 "../../lib/e-puck2_main-processor/ChibiOS_ext/os/hal/include/../ports/STM32/STM32F4xx/dcm
 1235              		.file 60 "c:\\users\\luca\\desktop\\eclipse_e-puck2_win32_29_jan_2020\\eclipse_e-puck2\\tools\\gcc
 1236              		.file 61 "../../lib/e-puck2_main-processor/src/msgbus/messagebus.h"
 1237              		.file 62 "c:\\users\\luca\\desktop\\eclipse_e-puck2_win32_29_jan_2020\\eclipse_e-puck2\\tools\\gcc
 1238              		.file 63 "../../lib/e-puck2_main-processor/src/parameter/parameter.h"
 1239              		.file 64 "./main.h"
 1240              		.file 65 "../../lib/e-puck2_main-processor/src/sensors/mpu9250.h"
 1241              		.file 66 "../../lib/e-puck2_main-processor/src/sensors/imu.h"
 1242              		.file 67 "../../lib/e-puck2_main-processor/src/sensors/proximity.h"
 1243              		.file 68 "../../lib/e-puck2_main-processor/ChibiOS//os/rt/include/chthreads.h"
 1244              		.file 69 "../../lib/e-puck2_main-processor/src/motors.h"