ARM GAS  C:\Users\Luca\AppData\Local\Temp\ccyCZv5c.s 			page 1


   1              		.cpu cortex-m4
   2              		.eabi_attribute 27, 1
   3              		.eabi_attribute 28, 1
   4              		.eabi_attribute 20, 1
   5              		.eabi_attribute 21, 1
   6              		.eabi_attribute 23, 3
   7              		.eabi_attribute 24, 1
   8              		.eabi_attribute 25, 1
   9              		.eabi_attribute 26, 1
  10              		.eabi_attribute 30, 2
  11              		.eabi_attribute 34, 1
  12              		.eabi_attribute 18, 4
  13              		.file	"obstacle.c"
  14              		.text
  15              	.Ltext0:
  16              		.cfi_sections	.debug_frame
  17              		.section	.text.motor_stop,"ax",%progbits
  18              		.align	1
  19              		.p2align 4,,15
  20              		.global	motor_stop
  21              		.syntax unified
  22              		.thumb
  23              		.thumb_func
  24              		.fpu fpv4-sp-d16
  25              		.type	motor_stop, %function
  26              	motor_stop:
  27              	.LFB259:
  28              		.file 1 "obstacle.c"
  29              		.loc 1 47 0
  30              		.cfi_startproc
  31              		@ args = 0, pretend = 0, frame = 8
  32              		@ frame_needed = 0, uses_anonymous_args = 0
  33 0000 10B5     		push	{r4, lr}
  34              		.cfi_def_cfa_offset 8
  35              		.cfi_offset 4, -8
  36              		.cfi_offset 14, -4
  37 0002 094C     		ldr	r4, .L7
  38 0004 82B0     		sub	sp, sp, #8
  39              		.cfi_def_cfa_offset 16
  40              		.loc 1 47 0
  41 0006 2368     		ldr	r3, [r4]
  42 0008 0193     		str	r3, [sp, #4]
  43              		.loc 1 48 0
  44 000a 0020     		movs	r0, #0
  45 000c FFF7FEFF 		bl	right_motor_set_speed
  46              	.LVL0:
  47              		.loc 1 49 0
  48 0010 019A     		ldr	r2, [sp, #4]
  49 0012 2368     		ldr	r3, [r4]
  50 0014 9A42     		cmp	r2, r3
  51 0016 05D1     		bne	.L6
  52 0018 0020     		movs	r0, #0
  53              		.loc 1 50 0
  54 001a 02B0     		add	sp, sp, #8
  55              		.cfi_remember_state
  56              		.cfi_def_cfa_offset 8
  57              		@ sp needed
ARM GAS  C:\Users\Luca\AppData\Local\Temp\ccyCZv5c.s 			page 2


  58 001c BDE81040 		pop	{r4, lr}
  59              		.cfi_restore 14
  60              		.cfi_restore 4
  61              		.cfi_def_cfa_offset 0
  62              		.loc 1 49 0
  63 0020 FFF7FEBF 		b	left_motor_set_speed
  64              	.LVL1:
  65              	.L6:
  66              		.cfi_restore_state
  67 0024 FFF7FEFF 		bl	__stack_chk_fail
  68              	.LVL2:
  69              	.L8:
  70              		.align	2
  71              	.L7:
  72 0028 00000000 		.word	__stack_chk_guard
  73              		.cfi_endproc
  74              	.LFE259:
  75              		.size	motor_stop, .-motor_stop
  76              		.section	.text.shift,"ax",%progbits
  77              		.align	1
  78              		.p2align 4,,15
  79              		.global	shift
  80              		.syntax unified
  81              		.thumb
  82              		.thumb_func
  83              		.fpu fpv4-sp-d16
  84              		.type	shift, %function
  85              	shift:
  86              	.LFB260:
  87              		.loc 1 55 0
  88              		.cfi_startproc
  89              		@ args = 0, pretend = 0, frame = 8
  90              		@ frame_needed = 0, uses_anonymous_args = 0
  91              	.LVL3:
  92 0000 30B5     		push	{r4, r5, lr}
  93              		.cfi_def_cfa_offset 12
  94              		.cfi_offset 4, -12
  95              		.cfi_offset 5, -8
  96              		.cfi_offset 14, -4
  97 0002 094C     		ldr	r4, .L14
  98 0004 83B0     		sub	sp, sp, #12
  99              		.cfi_def_cfa_offset 24
 100              		.loc 1 55 0
 101 0006 2368     		ldr	r3, [r4]
 102 0008 0193     		str	r3, [sp, #4]
 103 000a 0546     		mov	r5, r0
 104              		.loc 1 56 0
 105 000c FFF7FEFF 		bl	right_motor_set_speed
 106              	.LVL4:
 107              		.loc 1 57 0
 108 0010 019A     		ldr	r2, [sp, #4]
 109 0012 2368     		ldr	r3, [r4]
 110 0014 9A42     		cmp	r2, r3
 111 0016 05D1     		bne	.L13
 112 0018 2846     		mov	r0, r5
 113              		.loc 1 58 0
 114 001a 03B0     		add	sp, sp, #12
ARM GAS  C:\Users\Luca\AppData\Local\Temp\ccyCZv5c.s 			page 3


 115              		.cfi_remember_state
 116              		.cfi_def_cfa_offset 12
 117              		@ sp needed
 118 001c BDE83040 		pop	{r4, r5, lr}
 119              		.cfi_restore 14
 120              		.cfi_restore 5
 121              		.cfi_restore 4
 122              		.cfi_def_cfa_offset 0
 123              		.loc 1 57 0
 124 0020 FFF7FEBF 		b	left_motor_set_speed
 125              	.LVL5:
 126              	.L13:
 127              		.cfi_restore_state
 128 0024 FFF7FEFF 		bl	__stack_chk_fail
 129              	.LVL6:
 130              	.L15:
 131              		.align	2
 132              	.L14:
 133 0028 00000000 		.word	__stack_chk_guard
 134              		.cfi_endproc
 135              	.LFE260:
 136              		.size	shift, .-shift
 137              		.section	.text.rotate,"ax",%progbits
 138              		.align	1
 139              		.p2align 4,,15
 140              		.global	rotate
 141              		.syntax unified
 142              		.thumb
 143              		.thumb_func
 144              		.fpu fpv4-sp-d16
 145              		.type	rotate, %function
 146              	rotate:
 147              	.LFB261:
 148              		.loc 1 63 0
 149              		.cfi_startproc
 150              		@ args = 0, pretend = 0, frame = 8
 151              		@ frame_needed = 0, uses_anonymous_args = 0
 152              	.LVL7:
 153 0000 70B5     		push	{r4, r5, r6, lr}
 154              		.cfi_def_cfa_offset 16
 155              		.cfi_offset 4, -16
 156              		.cfi_offset 5, -12
 157              		.cfi_offset 6, -8
 158              		.cfi_offset 14, -4
 159 0002 134D     		ldr	r5, .L21
 160 0004 82B0     		sub	sp, sp, #8
 161              		.cfi_def_cfa_offset 24
 162              		.loc 1 63 0
 163 0006 0E46     		mov	r6, r1
 164 0008 2B68     		ldr	r3, [r5]
 165 000a 0193     		str	r3, [sp, #4]
 166 000c 0446     		mov	r4, r0
 167              		.loc 1 64 0
 168 000e 0846     		mov	r0, r1
 169              	.LVL8:
 170 0010 FFF7FEFF 		bl	right_motor_set_speed
 171              	.LVL9:
ARM GAS  C:\Users\Luca\AppData\Local\Temp\ccyCZv5c.s 			page 4


 172              		.loc 1 65 0
 173 0014 7042     		negs	r0, r6
 174 0016 FFF7FEFF 		bl	left_motor_set_speed
 175              	.LVL10:
 176              		.loc 1 67 0
 177 001a 40F2E733 		movw	r3, #999
 178 001e 4FF47A72 		mov	r2, #1000
 179 0022 0C48     		ldr	r0, .L21+4
 180 0024 14FB0234 		smlabb	r4, r4, r2, r3
 181 0028 A0FB0430 		umull	r3, r0, r0, r4
 182 002c 8009     		lsrs	r0, r0, #6
 183 002e FFF7FEFF 		bl	chThdSleep
 184              	.LVL11:
 185              	.LBB9:
 186              	.LBB10:
 187              		.loc 1 48 0
 188 0032 0020     		movs	r0, #0
 189 0034 FFF7FEFF 		bl	right_motor_set_speed
 190              	.LVL12:
 191              		.loc 1 49 0
 192 0038 019A     		ldr	r2, [sp, #4]
 193 003a 2B68     		ldr	r3, [r5]
 194 003c 9A42     		cmp	r2, r3
 195 003e 05D1     		bne	.L20
 196 0040 0020     		movs	r0, #0
 197              	.LBE10:
 198              	.LBE9:
 199              		.loc 1 70 0
 200 0042 02B0     		add	sp, sp, #8
 201              		.cfi_remember_state
 202              		.cfi_def_cfa_offset 16
 203              		@ sp needed
 204 0044 BDE87040 		pop	{r4, r5, r6, lr}
 205              		.cfi_restore 14
 206              		.cfi_restore 6
 207              		.cfi_restore 5
 208              		.cfi_restore 4
 209              		.cfi_def_cfa_offset 0
 210              	.LBB12:
 211              	.LBB11:
 212              		.loc 1 49 0
 213 0048 FFF7FEBF 		b	left_motor_set_speed
 214              	.LVL13:
 215              	.L20:
 216              		.cfi_restore_state
 217 004c FFF7FEFF 		bl	__stack_chk_fail
 218              	.LVL14:
 219              	.L22:
 220              		.align	2
 221              	.L21:
 222 0050 00000000 		.word	__stack_chk_guard
 223 0054 D34D6210 		.word	274877907
 224              	.LBE11:
 225              	.LBE12:
 226              		.cfi_endproc
 227              	.LFE261:
 228              		.size	rotate, .-rotate
ARM GAS  C:\Users\Luca\AppData\Local\Temp\ccyCZv5c.s 			page 5


 229              		.global	__aeabi_i2d
 230              		.global	__aeabi_dmul
 231              		.global	__aeabi_dadd
 232              		.global	__aeabi_d2iz
 233              		.section	.text.obstacle_dist,"ax",%progbits
 234              		.align	1
 235              		.p2align 4,,15
 236              		.global	obstacle_dist
 237              		.syntax unified
 238              		.thumb
 239              		.thumb_func
 240              		.fpu fpv4-sp-d16
 241              		.type	obstacle_dist, %function
 242              	obstacle_dist:
 243              	.LFB262:
 244              		.loc 1 73 0
 245              		.cfi_startproc
 246              		@ args = 0, pretend = 0, frame = 8
 247              		@ frame_needed = 0, uses_anonymous_args = 0
 248              	.LVL15:
 249 0000 30B5     		push	{r4, r5, lr}
 250              		.cfi_def_cfa_offset 12
 251              		.cfi_offset 4, -12
 252              		.cfi_offset 5, -8
 253              		.cfi_offset 14, -4
 254 0002 144C     		ldr	r4, .L29
 255 0004 83B0     		sub	sp, sp, #12
 256              		.cfi_def_cfa_offset 24
 257              		.loc 1 73 0
 258 0006 2368     		ldr	r3, [r4]
 259 0008 0193     		str	r3, [sp, #4]
 260 000a 0546     		mov	r5, r0
 261              		.loc 1 74 0
 262 000c FFF7FEFF 		bl	get_calibrated_prox
 263              	.LVL16:
 264 0010 0028     		cmp	r0, #0
 265 0012 1BDD     		ble	.L26
 266              		.loc 1 75 0
 267 0014 2846     		mov	r0, r5
 268 0016 FFF7FEFF 		bl	get_calibrated_prox
 269              	.LVL17:
 270 001a FFF7FEFF 		bl	__aeabi_i2d
 271              	.LVL18:
 272 001e 41EC100B 		vmov	d0, r0, r1
 273 0022 FFF7FEFF 		bl	log
 274              	.LVL19:
 275 0026 0022     		movs	r2, #0
 276 0028 51EC100B 		vmov	r0, r1, d0
 277 002c 0A4B     		ldr	r3, .L29+4
 278 002e FFF7FEFF 		bl	__aeabi_dmul
 279              	.LVL20:
 280 0032 0022     		movs	r2, #0
 281 0034 094B     		ldr	r3, .L29+8
 282 0036 FFF7FEFF 		bl	__aeabi_dadd
 283              	.LVL21:
 284 003a FFF7FEFF 		bl	__aeabi_d2iz
 285              	.LVL22:
ARM GAS  C:\Users\Luca\AppData\Local\Temp\ccyCZv5c.s 			page 6


 286 003e 00B2     		sxth	r0, r0
 287              	.L24:
 288              		.loc 1 79 0
 289 0040 019A     		ldr	r2, [sp, #4]
 290 0042 2368     		ldr	r3, [r4]
 291 0044 9A42     		cmp	r2, r3
 292 0046 03D1     		bne	.L28
 293 0048 03B0     		add	sp, sp, #12
 294              		.cfi_remember_state
 295              		.cfi_def_cfa_offset 12
 296              		@ sp needed
 297 004a 30BD     		pop	{r4, r5, pc}
 298              	.L26:
 299              		.cfi_restore_state
 300              		.loc 1 77 0
 301 004c 4620     		movs	r0, #70
 302 004e F7E7     		b	.L24
 303              	.L28:
 304              		.loc 1 79 0
 305 0050 FFF7FEFF 		bl	__stack_chk_fail
 306              	.LVL23:
 307              	.L30:
 308              		.align	2
 309              	.L29:
 310 0054 00000000 		.word	__stack_chk_guard
 311 0058 000022C0 		.word	-1071513600
 312 005c 00005240 		.word	1079115776
 313              		.cfi_endproc
 314              	.LFE262:
 315              		.size	obstacle_dist, .-obstacle_dist
 316              		.global	__aeabi_dsub
 317              		.global	__aeabi_ddiv
 318              		.global	__aeabi_d2f
 319              		.section	.text.angle_regulator,"ax",%progbits
 320              		.align	1
 321              		.p2align 4,,15
 322              		.syntax unified
 323              		.thumb
 324              		.thumb_func
 325              		.fpu fpv4-sp-d16
 326              		.type	angle_regulator, %function
 327              	angle_regulator:
 328              	.LFB270:
 329              		.loc 1 265 0
 330              		.cfi_startproc
 331              		@ args = 0, pretend = 0, frame = 16
 332              		@ frame_needed = 0, uses_anonymous_args = 0
 333              	.LVL24:
 334 0000 2DE9F04F 		push	{r4, r5, r6, r7, r8, r9, r10, fp, lr}
 335              		.cfi_def_cfa_offset 36
 336              		.cfi_offset 4, -36
 337              		.cfi_offset 5, -32
 338              		.cfi_offset 6, -28
 339              		.cfi_offset 7, -24
 340              		.cfi_offset 8, -20
 341              		.cfi_offset 9, -16
 342              		.cfi_offset 10, -12
ARM GAS  C:\Users\Luca\AppData\Local\Temp\ccyCZv5c.s 			page 7


 343              		.cfi_offset 11, -8
 344              		.cfi_offset 14, -4
 345 0004 2DED028B 		vpush.64	{d8}
 346              		.cfi_def_cfa_offset 44
 347              		.cfi_offset 80, -44
 348              		.cfi_offset 81, -40
 349              	.LBB13:
 350              	.LBB14:
 351              		.file 2 "../../lib/e-puck2_main-processor/ChibiOS//os/rt/include/chregistry.h"
 352              		.loc 2 135 0
 353 0008 454A     		ldr	r2, .L40+16
 354              	.LBE14:
 355              	.LBE13:
 356              		.loc 1 265 0
 357 000a 464B     		ldr	r3, .L40+20
 358              	.LBB17:
 359              	.LBB15:
 360              		.loc 2 135 0
 361 000c 9269     		ldr	r2, [r2, #24]
 362 000e 4649     		ldr	r1, .L40+24
 363              	.LBE15:
 364              	.LBE17:
 365              		.loc 1 265 0
 366 0010 1B68     		ldr	r3, [r3]
 367              	.LBB18:
 368              		.loc 1 286 0
 369 0012 DFED468A 		vldr.32	s17, .L40+28
 370              		.loc 1 288 0
 371 0016 9FED468A 		vldr.32	s16, .L40+32
 372              	.LBE18:
 373              	.LBB19:
 374              	.LBB16:
 375              		.loc 2 135 0
 376 001a 9161     		str	r1, [r2, #24]
 377              	.LBE16:
 378              	.LBE19:
 379              		.loc 1 265 0
 380 001c 85B0     		sub	sp, sp, #20
 381              		.cfi_def_cfa_offset 64
 382              		.loc 1 265 0
 383 001e 0393     		str	r3, [sp, #12]
 384              	.LVL25:
 385              	.L32:
 386              	.LBB20:
 387              		.loc 1 278 0
 388 0020 4448     		ldr	r0, .L40+36
 389 0022 FFF7FEFF 		bl	right_motor_set_speed
 390              	.LVL26:
 391              		.loc 1 279 0
 392 0026 4FF4C870 		mov	r0, #400
 393 002a FFF7FEFF 		bl	left_motor_set_speed
 394              	.LVL27:
 395              		.loc 1 281 0
 396 002e 0620     		movs	r0, #6
 397 0030 FFF7FEFF 		bl	obstacle_dist
 398              	.LVL28:
 399 0034 00F12304 		add	r4, r0, #35
ARM GAS  C:\Users\Luca\AppData\Local\Temp\ccyCZv5c.s 			page 8


 400              		.loc 1 282 0
 401 0038 0520     		movs	r0, #5
 402 003a FFF7FEFF 		bl	obstacle_dist
 403              	.LVL29:
 404              		.loc 1 281 0
 405 003e 24B2     		sxth	r4, r4
 406              	.LVL30:
 407              		.loc 1 282 0
 408 0040 2230     		adds	r0, r0, #34
 409 0042 05B2     		sxth	r5, r0
 410              	.LVL31:
 411              		.loc 1 284 0
 412 0044 2046     		mov	r0, r4
 413 0046 FFF7FEFF 		bl	__aeabi_i2d
 414              	.LVL32:
 415 004a 8246     		mov	r10, r0
 416 004c 2846     		mov	r0, r5
 417 004e 8B46     		mov	fp, r1
 418 0050 FFF7FEFF 		bl	__aeabi_i2d
 419              	.LVL33:
 420 0054 5246     		mov	r2, r10
 421 0056 8046     		mov	r8, r0
 422 0058 8946     		mov	r9, r1
 423 005a 5B46     		mov	r3, fp
 424 005c 5046     		mov	r0, r10
 425 005e 5946     		mov	r1, fp
 426 0060 FFF7FEFF 		bl	__aeabi_dmul
 427              	.LVL34:
 428 0064 4246     		mov	r2, r8
 429 0066 0646     		mov	r6, r0
 430 0068 0F46     		mov	r7, r1
 431 006a 4B46     		mov	r3, r9
 432 006c 4046     		mov	r0, r8
 433 006e 4946     		mov	r1, r9
 434 0070 FFF7FEFF 		bl	__aeabi_dmul
 435              	.LVL35:
 436 0074 0246     		mov	r2, r0
 437 0076 0B46     		mov	r3, r1
 438 0078 3046     		mov	r0, r6
 439 007a 3946     		mov	r1, r7
 440 007c FFF7FEFF 		bl	__aeabi_dadd
 441              	.LVL36:
 442 0080 0646     		mov	r6, r0
 443 0082 6000     		lsls	r0, r4, #1
 444 0084 05FB00F0 		mul	r0, r5, r0
 445 0088 0F46     		mov	r7, r1
 446 008a FFF7FEFF 		bl	__aeabi_i2d
 447              	.LVL37:
 448 008e 20A3     		adr	r3, .L40
 449 0090 D3E90023 		ldrd	r2, [r3]
 450 0094 FFF7FEFF 		bl	__aeabi_dmul
 451              	.LVL38:
 452 0098 0246     		mov	r2, r0
 453 009a 0B46     		mov	r3, r1
 454 009c 3046     		mov	r0, r6
 455 009e 3946     		mov	r1, r7
 456 00a0 FFF7FEFF 		bl	__aeabi_dsub
ARM GAS  C:\Users\Luca\AppData\Local\Temp\ccyCZv5c.s 			page 9


 457              	.LVL39:
 458 00a4 41EC100B 		vmov	d0, r0, r1
 459 00a8 FFF7FEFF 		bl	sqrt
 460              	.LVL40:
 461 00ac 1AA3     		adr	r3, .L40+8
 462 00ae D3E90023 		ldrd	r2, [r3]
 463 00b2 5046     		mov	r0, r10
 464 00b4 5946     		mov	r1, fp
 465 00b6 8DED000B 		vstr.64	d0, [sp]
 466 00ba FFF7FEFF 		bl	__aeabi_dmul
 467              	.LVL41:
 468 00be 9DED000B 		vldr.64	d0, [sp]
 469 00c2 53EC102B 		vmov	r2, r3, d0
 470 00c6 FFF7FEFF 		bl	__aeabi_ddiv
 471              	.LVL42:
 472 00ca 41EC100B 		vmov	d0, r0, r1
 473 00ce FFF7FEFF 		bl	asin
 474              	.LVL43:
 475 00d2 51EC100B 		vmov	r0, r1, d0
 476 00d6 FFF7FEFF 		bl	__aeabi_d2f
 477              	.LVL44:
 478              		.loc 1 286 0
 479 00da 07EE900A 		vmov	s15, r0
 480 00de 78EEE77A 		vsub.f32	s15, s17, s15
 481              		.loc 1 292 0
 482 00e2 1448     		ldr	r0, .L40+36
 483              		.loc 1 288 0
 484 00e4 F0EEE77A 		vabs.f32	s15, s15
 485 00e8 F4EEC87A 		vcmpe.f32	s15, s16
 486 00ec F1EE10FA 		vmrs	APSR_nzcv, FPSCR
 487 00f0 06D5     		bpl	.L38
 488              		.loc 1 289 0
 489 00f2 0020     		movs	r0, #0
 490 00f4 FFF7FEFF 		bl	right_motor_set_speed
 491              	.LVL45:
 492              		.loc 1 290 0
 493 00f8 0020     		movs	r0, #0
 494 00fa FFF7FEFF 		bl	left_motor_set_speed
 495              	.LVL46:
 496 00fe 8FE7     		b	.L32
 497              	.L38:
 498              		.loc 1 292 0
 499 0100 FFF7FEFF 		bl	right_motor_set_speed
 500              	.LVL47:
 501              		.loc 1 293 0
 502 0104 4FF4C870 		mov	r0, #400
 503 0108 FFF7FEFF 		bl	left_motor_set_speed
 504              	.LVL48:
 505 010c 88E7     		b	.L32
 506              	.L41:
 507 010e 00BF     		.align	3
 508              	.L40:
 509 0110 36139DB4 		.word	-1264774346
 510 0114 9426E83F 		.word	1072178836
 511 0118 2AF43C81 		.word	-2126711766
 512 011c 6FFEE43F 		.word	1071971951
 513 0120 00000000 		.word	ch
ARM GAS  C:\Users\Luca\AppData\Local\Temp\ccyCZv5c.s 			page 10


 514 0124 00000000 		.word	__stack_chk_guard
 515 0128 00000000 		.word	.LANCHOR0
 516 012c DB0FC93F 		.word	1070141403
 517 0130 C3B8323E 		.word	1043511491
 518 0134 70FEFFFF 		.word	-400
 519              	.LBE20:
 520              		.cfi_endproc
 521              	.LFE270:
 522              		.size	angle_regulator, .-angle_regulator
 523              		.section	.text.obstacle_detection,"ax",%progbits
 524              		.align	1
 525              		.p2align 4,,15
 526              		.global	obstacle_detection
 527              		.syntax unified
 528              		.thumb
 529              		.thumb_func
 530              		.fpu fpv4-sp-d16
 531              		.type	obstacle_detection, %function
 532              	obstacle_detection:
 533              	.LFB263:
 534              		.loc 1 85 0
 535              		.cfi_startproc
 536              		@ args = 0, pretend = 0, frame = 8
 537              		@ frame_needed = 0, uses_anonymous_args = 0
 538 0000 70B5     		push	{r4, r5, r6, lr}
 539              		.cfi_def_cfa_offset 16
 540              		.cfi_offset 4, -16
 541              		.cfi_offset 5, -12
 542              		.cfi_offset 6, -8
 543              		.cfi_offset 14, -4
 544 0002 2B4E     		ldr	r6, .L63
 545 0004 82B0     		sub	sp, sp, #8
 546              		.cfi_def_cfa_offset 24
 547              	.LBB21:
 548              		.loc 1 90 0
 549 0006 0024     		movs	r4, #0
 550              	.LBE21:
 551              		.loc 1 85 0
 552 0008 3368     		ldr	r3, [r6]
 553 000a 0193     		str	r3, [sp, #4]
 554              	.LVL49:
 555              		.loc 1 86 0
 556 000c 2546     		mov	r5, r4
 557 000e 02E0     		b	.L44
 558              	.LVL50:
 559              	.L43:
 560              	.LBB22:
 561              		.loc 1 90 0 discriminator 2
 562 0010 0134     		adds	r4, r4, #1
 563              	.LVL51:
 564 0012 082C     		cmp	r4, #8
 565 0014 0BD0     		beq	.L59
 566              	.LVL52:
 567              	.L44:
 568              		.loc 1 91 0
 569 0016 2046     		mov	r0, r4
 570 0018 FFF7FEFF 		bl	get_calibrated_prox
ARM GAS  C:\Users\Luca\AppData\Local\Temp\ccyCZv5c.s 			page 11


 571              	.LVL53:
 572 001c A842     		cmp	r0, r5
 573 001e F7DD     		ble	.L43
 574              		.loc 1 92 0
 575 0020 2046     		mov	r0, r4
 576 0022 FFF7FEFF 		bl	get_calibrated_prox
 577              	.LVL54:
 578              		.loc 1 90 0
 579 0026 0134     		adds	r4, r4, #1
 580              	.LVL55:
 581 0028 082C     		cmp	r4, #8
 582              		.loc 1 92 0
 583 002a 05B2     		sxth	r5, r0
 584              	.LVL56:
 585              		.loc 1 90 0
 586 002c F3D1     		bne	.L44
 587              	.L59:
 588              	.LBE22:
 589              		.loc 1 116 0
 590 002e B5F5FA7F 		cmp	r5, #500
 591 0032 1EDC     		bgt	.L60
 592              		.loc 1 119 0
 593 0034 FA2D     		cmp	r5, #250
 594 0036 11DC     		bgt	.L61
 595              		.loc 1 122 0
 596 0038 642D     		cmp	r5, #100
 597 003a 29DC     		bgt	.L62
 598              		.loc 1 126 0
 599 003c 4FF41670 		mov	r0, #600
 600 0040 FFF7FEFF 		bl	right_motor_set_speed
 601              	.LVL57:
 602              		.loc 1 127 0
 603 0044 019A     		ldr	r2, [sp, #4]
 604 0046 3368     		ldr	r3, [r6]
 605 0048 9A42     		cmp	r2, r3
 606 004a 08BF     		it	eq
 607 004c 4FF41670 		moveq	r0, #600
 608 0050 0DD1     		bne	.L56
 609              	.L55:
 610              		.loc 1 131 0
 611 0052 02B0     		add	sp, sp, #8
 612              		.cfi_remember_state
 613              		.cfi_def_cfa_offset 16
 614              		@ sp needed
 615 0054 BDE87040 		pop	{r4, r5, r6, lr}
 616              		.cfi_restore 14
 617              		.cfi_restore 6
 618              		.cfi_restore 5
 619              		.cfi_restore 4
 620              		.cfi_def_cfa_offset 0
 621              	.LVL58:
 622              		.loc 1 127 0
 623 0058 FFF7FEBF 		b	left_motor_set_speed
 624              	.LVL59:
 625              	.L61:
 626              		.cfi_restore_state
 627              		.loc 1 120 0
ARM GAS  C:\Users\Luca\AppData\Local\Temp\ccyCZv5c.s 			page 12


 628 005c C820     		movs	r0, #200
 629 005e FFF7FEFF 		bl	right_motor_set_speed
 630              	.LVL60:
 631              		.loc 1 121 0
 632 0062 019A     		ldr	r2, [sp, #4]
 633 0064 3368     		ldr	r3, [r6]
 634 0066 9A42     		cmp	r2, r3
 635 0068 08BF     		it	eq
 636 006a C820     		moveq	r0, #200
 637 006c F1D0     		beq	.L55
 638              	.L56:
 639              		.loc 1 127 0
 640 006e FFF7FEFF 		bl	__stack_chk_fail
 641              	.LVL61:
 642              	.L60:
 643              		.loc 1 117 0
 644 0072 C820     		movs	r0, #200
 645 0074 FFF7FEFF 		bl	right_motor_set_speed
 646              	.LVL62:
 647              		.loc 1 118 0
 648 0078 019A     		ldr	r2, [sp, #4]
 649 007a 3368     		ldr	r3, [r6]
 650 007c 9A42     		cmp	r2, r3
 651 007e 08BF     		it	eq
 652 0080 6FF0C700 		mvneq	r0, #199
 653 0084 F3D1     		bne	.L56
 654              		.loc 1 131 0
 655 0086 02B0     		add	sp, sp, #8
 656              		.cfi_remember_state
 657              		.cfi_def_cfa_offset 16
 658              		@ sp needed
 659 0088 BDE87040 		pop	{r4, r5, r6, lr}
 660              		.cfi_restore 14
 661              		.cfi_restore 6
 662              		.cfi_restore 5
 663              		.cfi_restore 4
 664              		.cfi_def_cfa_offset 0
 665              	.LVL63:
 666              		.loc 1 127 0
 667 008c FFF7FEBF 		b	left_motor_set_speed
 668              	.LVL64:
 669              	.L62:
 670              		.cfi_restore_state
 671              		.loc 1 123 0
 672 0090 4FF4C870 		mov	r0, #400
 673 0094 FFF7FEFF 		bl	right_motor_set_speed
 674              	.LVL65:
 675              		.loc 1 124 0
 676 0098 019A     		ldr	r2, [sp, #4]
 677 009a 3368     		ldr	r3, [r6]
 678 009c 9A42     		cmp	r2, r3
 679 009e 08BF     		it	eq
 680 00a0 4FF4C870 		moveq	r0, #400
 681 00a4 E3D1     		bne	.L56
 682              		.loc 1 131 0
 683 00a6 02B0     		add	sp, sp, #8
 684              		.cfi_def_cfa_offset 16
ARM GAS  C:\Users\Luca\AppData\Local\Temp\ccyCZv5c.s 			page 13


 685              		@ sp needed
 686 00a8 BDE87040 		pop	{r4, r5, r6, lr}
 687              		.cfi_restore 14
 688              		.cfi_restore 6
 689              		.cfi_restore 5
 690              		.cfi_restore 4
 691              		.cfi_def_cfa_offset 0
 692              	.LVL66:
 693              		.loc 1 127 0
 694 00ac FFF7FEBF 		b	left_motor_set_speed
 695              	.LVL67:
 696              	.L64:
 697              		.align	2
 698              	.L63:
 699 00b0 00000000 		.word	__stack_chk_guard
 700              		.cfi_endproc
 701              	.LFE263:
 702              		.size	obstacle_detection, .-obstacle_detection
 703              		.global	__aeabi_dcmpun
 704              		.global	__aeabi_dcmpge
 705              		.section	.text.print_sin_beta,"ax",%progbits
 706              		.align	1
 707              		.p2align 4,,15
 708              		.global	print_sin_beta
 709              		.syntax unified
 710              		.thumb
 711              		.thumb_func
 712              		.fpu fpv4-sp-d16
 713              		.type	print_sin_beta, %function
 714              	print_sin_beta:
 715              	.LFB264:
 716              		.loc 1 133 0
 717              		.cfi_startproc
 718              		@ args = 0, pretend = 0, frame = 16
 719              		@ frame_needed = 0, uses_anonymous_args = 0
 720 0000 2DE9704F 		push	{r4, r5, r6, r8, r9, r10, fp, lr}
 721              		.cfi_def_cfa_offset 32
 722              		.cfi_offset 4, -32
 723              		.cfi_offset 5, -28
 724              		.cfi_offset 6, -24
 725              		.cfi_offset 8, -20
 726              		.cfi_offset 9, -16
 727              		.cfi_offset 10, -12
 728              		.cfi_offset 11, -8
 729              		.cfi_offset 14, -4
 730 0004 384E     		ldr	r6, .L71+16
 731 0006 84B0     		sub	sp, sp, #16
 732              		.cfi_def_cfa_offset 48
 733              		.loc 1 133 0
 734 0008 3368     		ldr	r3, [r6]
 735 000a 0393     		str	r3, [sp, #12]
 736              		.loc 1 134 0
 737 000c 0620     		movs	r0, #6
 738 000e FFF7FEFF 		bl	obstacle_dist
 739              	.LVL68:
 740 0012 00F12304 		add	r4, r0, #35
 741              		.loc 1 135 0
ARM GAS  C:\Users\Luca\AppData\Local\Temp\ccyCZv5c.s 			page 14


 742 0016 0520     		movs	r0, #5
 743 0018 FFF7FEFF 		bl	obstacle_dist
 744              	.LVL69:
 745 001c 2330     		adds	r0, r0, #35
 746 001e 05B2     		sxth	r5, r0
 747              		.loc 1 138 0
 748 0020 2846     		mov	r0, r5
 749 0022 FFF7FEFF 		bl	__aeabi_i2d
 750              	.LVL70:
 751 0026 2CA3     		adr	r3, .L71
 752 0028 D3E90023 		ldrd	r2, [r3]
 753 002c 8046     		mov	r8, r0
 754 002e 8946     		mov	r9, r1
 755 0030 FFF7FEFF 		bl	__aeabi_dmul
 756              	.LVL71:
 757              		.loc 1 134 0
 758 0034 24B2     		sxth	r4, r4
 759              	.LVL72:
 760              		.loc 1 138 0
 761 0036 8246     		mov	r10, r0
 762 0038 2046     		mov	r0, r4
 763 003a 8B46     		mov	fp, r1
 764 003c FFF7FEFF 		bl	__aeabi_i2d
 765              	.LVL73:
 766 0040 4246     		mov	r2, r8
 767 0042 CDE90001 		strd	r0, [sp]
 768 0046 4B46     		mov	r3, r9
 769 0048 4046     		mov	r0, r8
 770 004a 4946     		mov	r1, r9
 771 004c FFF7FEFF 		bl	__aeabi_dmul
 772              	.LVL74:
 773 0050 DDE90023 		ldrd	r2, [sp]
 774 0054 8046     		mov	r8, r0
 775 0056 8946     		mov	r9, r1
 776 0058 1046     		mov	r0, r2
 777 005a 1946     		mov	r1, r3
 778 005c FFF7FEFF 		bl	__aeabi_dmul
 779              	.LVL75:
 780 0060 0246     		mov	r2, r0
 781 0062 0B46     		mov	r3, r1
 782 0064 4046     		mov	r0, r8
 783 0066 4946     		mov	r1, r9
 784 0068 FFF7FEFF 		bl	__aeabi_dadd
 785              	.LVL76:
 786 006c 8046     		mov	r8, r0
 787 006e 6000     		lsls	r0, r4, #1
 788 0070 05FB00F0 		mul	r0, r5, r0
 789 0074 8946     		mov	r9, r1
 790 0076 FFF7FEFF 		bl	__aeabi_i2d
 791              	.LVL77:
 792 007a 19A3     		adr	r3, .L71+8
 793 007c D3E90023 		ldrd	r2, [r3]
 794 0080 FFF7FEFF 		bl	__aeabi_dmul
 795              	.LVL78:
 796 0084 0246     		mov	r2, r0
 797 0086 0B46     		mov	r3, r1
 798 0088 4046     		mov	r0, r8
ARM GAS  C:\Users\Luca\AppData\Local\Temp\ccyCZv5c.s 			page 15


 799 008a 4946     		mov	r1, r9
 800 008c FFF7FEFF 		bl	__aeabi_dsub
 801              	.LVL79:
 802 0090 0022     		movs	r2, #0
 803 0092 0023     		movs	r3, #0
 804 0094 0446     		mov	r4, r0
 805              	.LVL80:
 806 0096 0D46     		mov	r5, r1
 807              	.LVL81:
 808 0098 FFF7FEFF 		bl	__aeabi_dcmpun
 809              	.LVL82:
 810 009c 30B9     		cbnz	r0, .L66
 811 009e 0022     		movs	r2, #0
 812 00a0 0023     		movs	r3, #0
 813 00a2 2046     		mov	r0, r4
 814 00a4 2946     		mov	r1, r5
 815 00a6 FFF7FEFF 		bl	__aeabi_dcmpge
 816              	.LVL83:
 817 00aa 60B1     		cbz	r0, .L69
 818              	.L66:
 819              	.LVL84:
 820              		.loc 1 141 0
 821 00ac 5046     		mov	r0, r10
 822 00ae 5946     		mov	r1, fp
 823 00b0 FFF7FEFF 		bl	__aeabi_d2f
 824              	.LVL85:
 825              		.loc 1 142 0
 826 00b4 039A     		ldr	r2, [sp, #12]
 827 00b6 3368     		ldr	r3, [r6]
 828 00b8 9A42     		cmp	r2, r3
 829 00ba 00EE100A 		vmov	s0, r0
 830 00be 07D1     		bne	.L70
 831 00c0 04B0     		add	sp, sp, #16
 832              		.cfi_remember_state
 833              		.cfi_def_cfa_offset 32
 834              		@ sp needed
 835 00c2 BDE8708F 		pop	{r4, r5, r6, r8, r9, r10, fp, pc}
 836              	.LVL86:
 837              	.L69:
 838              		.cfi_restore_state
 839              		.loc 1 138 0
 840 00c6 45EC104B 		vmov	d0, r4, r5
 841 00ca FFF7FEFF 		bl	sqrt
 842              	.LVL87:
 843 00ce EDE7     		b	.L66
 844              	.LVL88:
 845              	.L70:
 846              		.loc 1 142 0
 847 00d0 FFF7FEFF 		bl	__stack_chk_fail
 848              	.LVL89:
 849              	.L72:
 850 00d4 AFF30080 		.align	3
 851              	.L71:
 852 00d8 2AF43C81 		.word	-2126711766
 853 00dc 6FFEE43F 		.word	1071971951
 854 00e0 36139DB4 		.word	-1264774346
 855 00e4 9426E83F 		.word	1072178836
ARM GAS  C:\Users\Luca\AppData\Local\Temp\ccyCZv5c.s 			page 16


 856 00e8 00000000 		.word	__stack_chk_guard
 857              		.cfi_endproc
 858              	.LFE264:
 859              		.size	print_sin_beta, .-print_sin_beta
 860              		.global	__aeabi_dcmplt
 861              		.section	.text.obstacle_prox_regulator,"ax",%progbits
 862              		.align	1
 863              		.p2align 4,,15
 864              		.global	obstacle_prox_regulator
 865              		.syntax unified
 866              		.thumb
 867              		.thumb_func
 868              		.fpu fpv4-sp-d16
 869              		.type	obstacle_prox_regulator, %function
 870              	obstacle_prox_regulator:
 871              	.LFB265:
 872              		.loc 1 145 0
 873              		.cfi_startproc
 874              		@ args = 0, pretend = 0, frame = 16
 875              		@ frame_needed = 0, uses_anonymous_args = 0
 876              	.LVL90:
 877 0000 2DE9F04F 		push	{r4, r5, r6, r7, r8, r9, r10, fp, lr}
 878              		.cfi_def_cfa_offset 36
 879              		.cfi_offset 4, -36
 880              		.cfi_offset 5, -32
 881              		.cfi_offset 6, -28
 882              		.cfi_offset 7, -24
 883              		.cfi_offset 8, -20
 884              		.cfi_offset 9, -16
 885              		.cfi_offset 10, -12
 886              		.cfi_offset 11, -8
 887              		.cfi_offset 14, -4
 888 0004 DFF83CA1 		ldr	r10, .L83+28
 889 0008 85B0     		sub	sp, sp, #20
 890              		.cfi_def_cfa_offset 56
 891              		.loc 1 145 0
 892 000a DAF80030 		ldr	r3, [r10]
 893 000e 0393     		str	r3, [sp, #12]
 894              	.LVL91:
 895 0010 8346     		mov	fp, r0
 896              		.loc 1 152 0
 897 0012 0520     		movs	r0, #5
 898              	.LVL92:
 899 0014 FFF7FEFF 		bl	obstacle_dist
 900              	.LVL93:
 901 0018 00F12304 		add	r4, r0, #35
 902              		.loc 1 153 0
 903 001c 0620     		movs	r0, #6
 904 001e FFF7FEFF 		bl	obstacle_dist
 905              	.LVL94:
 906 0022 2330     		adds	r0, r0, #35
 907 0024 05B2     		sxth	r5, r0
 908              		.loc 1 156 0
 909 0026 2846     		mov	r0, r5
 910 0028 FFF7FEFF 		bl	__aeabi_i2d
 911              	.LVL95:
 912              		.loc 1 152 0
ARM GAS  C:\Users\Luca\AppData\Local\Temp\ccyCZv5c.s 			page 17


 913 002c 24B2     		sxth	r4, r4
 914              	.LVL96:
 915              		.loc 1 156 0
 916 002e 0646     		mov	r6, r0
 917 0030 2046     		mov	r0, r4
 918 0032 0F46     		mov	r7, r1
 919 0034 FFF7FEFF 		bl	__aeabi_i2d
 920              	.LVL97:
 921 0038 0246     		mov	r2, r0
 922 003a 0B46     		mov	r3, r1
 923 003c FFF7FEFF 		bl	__aeabi_dmul
 924              	.LVL98:
 925 0040 3246     		mov	r2, r6
 926 0042 8046     		mov	r8, r0
 927 0044 8946     		mov	r9, r1
 928 0046 3B46     		mov	r3, r7
 929 0048 3046     		mov	r0, r6
 930 004a 3946     		mov	r1, r7
 931 004c FFF7FEFF 		bl	__aeabi_dmul
 932              	.LVL99:
 933 0050 0246     		mov	r2, r0
 934 0052 0B46     		mov	r3, r1
 935 0054 4046     		mov	r0, r8
 936 0056 4946     		mov	r1, r9
 937 0058 FFF7FEFF 		bl	__aeabi_dadd
 938              	.LVL100:
 939 005c 8046     		mov	r8, r0
 940 005e 6000     		lsls	r0, r4, #1
 941 0060 05FB00F0 		mul	r0, r5, r0
 942 0064 8946     		mov	r9, r1
 943 0066 FFF7FEFF 		bl	__aeabi_i2d
 944              	.LVL101:
 945 006a 30A3     		adr	r3, .L83+4
 946 006c D3E90023 		ldrd	r2, [r3]
 947 0070 FFF7FEFF 		bl	__aeabi_dmul
 948              	.LVL102:
 949 0074 0246     		mov	r2, r0
 950 0076 0B46     		mov	r3, r1
 951 0078 4046     		mov	r0, r8
 952 007a 4946     		mov	r1, r9
 953 007c FFF7FEFF 		bl	__aeabi_dsub
 954              	.LVL103:
 955 0080 41EC100B 		vmov	d0, r0, r1
 956 0084 FFF7FEFF 		bl	sqrt
 957              	.LVL104:
 958 0088 2AA3     		adr	r3, .L83+12
 959 008a D3E90023 		ldrd	r2, [r3]
 960 008e 3046     		mov	r0, r6
 961 0090 3946     		mov	r1, r7
 962 0092 8DED000B 		vstr.64	d0, [sp]
 963              	.LVL105:
 964 0096 FFF7FEFF 		bl	__aeabi_dmul
 965              	.LVL106:
 966 009a 9DED000B 		vldr.64	d0, [sp]
 967 009e 53EC102B 		vmov	r2, r3, d0
 968 00a2 FFF7FEFF 		bl	__aeabi_ddiv
 969              	.LVL107:
ARM GAS  C:\Users\Luca\AppData\Local\Temp\ccyCZv5c.s 			page 18


 970 00a6 FFF7FEFF 		bl	__aeabi_d2iz
 971              	.LVL108:
 972              		.loc 1 158 0
 973 00aa A0EB0B0B 		sub	fp, r0, fp
 974 00ae 1FFA8BFB 		uxth	fp, fp
 975              	.LVL109:
 976              		.loc 1 160 0
 977 00b2 0FFA8BF0 		sxth	r0, fp
 978 00b6 FFF7FEFF 		bl	__aeabi_i2d
 979              	.LVL110:
 980 00ba 21F00043 		bic	r3, r1, #-2147483648
 981 00be 1946     		mov	r1, r3
 982 00c0 1EA3     		adr	r3, .L83+20
 983 00c2 D3E90023 		ldrd	r2, [r3]
 984 00c6 FFF7FEFF 		bl	__aeabi_dcmplt
 985              	.LVL111:
 986 00ca 10BB     		cbnz	r0, .L79
 987              		.loc 1 164 0
 988 00cc 164B     		ldr	r3, .L83
 989 00ce 1888     		ldrh	r0, [r3]
 990 00d0 5844     		add	r0, r0, fp
 991 00d2 80B2     		uxth	r0, r0
 992 00d4 02B2     		sxth	r2, r0
 993              		.loc 1 167 0
 994 00d6 B2F5B77F 		cmp	r2, #366
 995 00da 11DD     		ble	.L75
 996              		.loc 1 168 0
 997 00dc 4FF4B772 		mov	r2, #366
 998 00e0 1A80     		strh	r2, [r3]	@ movhi
 999 00e2 40F24A40 		movw	r0, #1098
 1000              	.L76:
 1001              		.loc 1 173 0
 1002 00e6 CBEB0B1B 		rsb	fp, fp, fp, lsl #4
 1003              	.LVL112:
 1004 00ea 00EB8B00 		add	r0, r0, fp, lsl #2
 1005 00ee 00B2     		sxth	r0, r0
 1006              	.LVL113:
 1007              	.L74:
 1008              		.loc 1 176 0
 1009 00f0 039A     		ldr	r2, [sp, #12]
 1010 00f2 DAF80030 		ldr	r3, [r10]
 1011 00f6 9A42     		cmp	r2, r3
 1012 00f8 12D1     		bne	.L81
 1013 00fa 05B0     		add	sp, sp, #20
 1014              		.cfi_remember_state
 1015              		.cfi_def_cfa_offset 36
 1016              	.LVL114:
 1017              		@ sp needed
 1018 00fc BDE8F08F 		pop	{r4, r5, r6, r7, r8, r9, r10, fp, pc}
 1019              	.LVL115:
 1020              	.L75:
 1021              		.cfi_restore_state
 1022              		.loc 1 169 0
 1023 0100 12F5B77F 		cmn	r2, #366
 1024 0104 4FF69261 		movw	r1, #65170
 1025 0108 05DA     		bge	.L82
 1026              		.loc 1 170 0
ARM GAS  C:\Users\Luca\AppData\Local\Temp\ccyCZv5c.s 			page 19


 1027 010a 1980     		strh	r1, [r3]	@ movhi
 1028 010c 4FF6B630 		movw	r0, #64438
 1029 0110 E9E7     		b	.L76
 1030              	.L79:
 1031              		.loc 1 161 0
 1032 0112 0020     		movs	r0, #0
 1033 0114 ECE7     		b	.L74
 1034              	.L82:
 1035 0116 00EB4000 		add	r0, r0, r0, lsl #1
 1036 011a 80B2     		uxth	r0, r0
 1037              		.loc 1 164 0
 1038 011c 1A80     		strh	r2, [r3]	@ movhi
 1039 011e E2E7     		b	.L76
 1040              	.LVL116:
 1041              	.L81:
 1042              		.loc 1 176 0
 1043 0120 FFF7FEFF 		bl	__stack_chk_fail
 1044              	.LVL117:
 1045              	.L84:
 1046 0124 AFF30080 		.align	3
 1047              	.L83:
 1048 0128 00000000 		.word	.LANCHOR1
 1049 012c 36139DB4 		.word	-1264774346
 1050 0130 9426E83F 		.word	1072178836
 1051 0134 2AF43C81 		.word	-2126711766
 1052 0138 6FFEE43F 		.word	1071971951
 1053 013c 00000060 		.word	1610612736
 1054 0140 1857C63F 		.word	1069963032
 1055 0144 00000000 		.word	__stack_chk_guard
 1056              		.cfi_endproc
 1057              	.LFE265:
 1058              		.size	obstacle_prox_regulator, .-obstacle_prox_regulator
 1059              		.section	.text.Obstacle,"ax",%progbits
 1060              		.align	1
 1061              		.p2align 4,,15
 1062              		.syntax unified
 1063              		.thumb
 1064              		.thumb_func
 1065              		.fpu fpv4-sp-d16
 1066              		.type	Obstacle, %function
 1067              	Obstacle:
 1068              	.LFB266:
 1069              		.loc 1 179 0
 1070              		.cfi_startproc
 1071              		@ args = 0, pretend = 0, frame = 8
 1072              		@ frame_needed = 0, uses_anonymous_args = 0
 1073              	.LVL118:
 1074 0000 10B5     		push	{r4, lr}
 1075              		.cfi_def_cfa_offset 8
 1076              		.cfi_offset 4, -8
 1077              		.cfi_offset 14, -4
 1078              	.LBB23:
 1079              	.LBB24:
 1080              		.loc 2 135 0
 1081 0002 0A4A     		ldr	r2, .L89
 1082              	.LBE24:
 1083              	.LBE23:
ARM GAS  C:\Users\Luca\AppData\Local\Temp\ccyCZv5c.s 			page 20


 1084              		.loc 1 179 0
 1085 0004 0A4B     		ldr	r3, .L89+4
 1086              	.LBB27:
 1087              	.LBB25:
 1088              		.loc 2 135 0
 1089 0006 9269     		ldr	r2, [r2, #24]
 1090 0008 0A49     		ldr	r1, .L89+8
 1091              	.LBE25:
 1092              	.LBE27:
 1093              		.loc 1 179 0
 1094 000a 1B68     		ldr	r3, [r3]
 1095              	.LBB28:
 1096              	.LBB26:
 1097              		.loc 2 135 0
 1098 000c 9161     		str	r1, [r2, #24]
 1099              	.LBE26:
 1100              	.LBE28:
 1101              		.loc 1 179 0
 1102 000e 82B0     		sub	sp, sp, #8
 1103              		.cfi_def_cfa_offset 16
 1104              		.loc 1 179 0
 1105 0010 0193     		str	r3, [sp, #4]
 1106              	.LVL119:
 1107              	.L86:
 1108              		.loc 1 199 0 discriminator 1
 1109 0012 0020     		movs	r0, #0
 1110 0014 FFF7FEFF 		bl	obstacle_prox_regulator
 1111              	.LVL120:
 1112 0018 0446     		mov	r4, r0
 1113              	.LVL121:
 1114              		.loc 1 202 0 discriminator 1
 1115 001a 00F51670 		add	r0, r0, #600
 1116              	.LVL122:
 1117 001e FFF7FEFF 		bl	right_motor_set_speed
 1118              	.LVL123:
 1119              		.loc 1 203 0 discriminator 1
 1120 0022 C4F51670 		rsb	r0, r4, #600
 1121 0026 FFF7FEFF 		bl	left_motor_set_speed
 1122              	.LVL124:
 1123 002a F2E7     		b	.L86
 1124              	.L90:
 1125              		.align	2
 1126              	.L89:
 1127 002c 00000000 		.word	ch
 1128 0030 00000000 		.word	__stack_chk_guard
 1129 0034 00000000 		.word	.LANCHOR2
 1130              		.cfi_endproc
 1131              	.LFE266:
 1132              		.size	Obstacle, .-Obstacle
 1133              		.section	.text.obstacle_start,"ax",%progbits
 1134              		.align	1
 1135              		.p2align 4,,15
 1136              		.global	obstacle_start
 1137              		.syntax unified
 1138              		.thumb
 1139              		.thumb_func
 1140              		.fpu fpv4-sp-d16
ARM GAS  C:\Users\Luca\AppData\Local\Temp\ccyCZv5c.s 			page 21


 1141              		.type	obstacle_start, %function
 1142              	obstacle_start:
 1143              	.LFB267:
 1144              		.loc 1 210 0
 1145              		.cfi_startproc
 1146              		@ args = 0, pretend = 0, frame = 8
 1147              		@ frame_needed = 0, uses_anonymous_args = 0
 1148 0000 10B5     		push	{r4, lr}
 1149              		.cfi_def_cfa_offset 8
 1150              		.cfi_offset 4, -8
 1151              		.cfi_offset 14, -4
 1152 0002 0A4C     		ldr	r4, .L95
 1153              		.loc 1 211 0
 1154 0004 0A4B     		ldr	r3, .L95+4
 1155              		.loc 1 210 0
 1156 0006 2268     		ldr	r2, [r4]
 1157              		.loc 1 211 0
 1158 0008 0A48     		ldr	r0, .L95+8
 1159              		.loc 1 210 0
 1160 000a 84B0     		sub	sp, sp, #16
 1161              		.cfi_def_cfa_offset 24
 1162              		.loc 1 211 0
 1163 000c 4FF41E71 		mov	r1, #632
 1164              		.loc 1 210 0
 1165 0010 0392     		str	r2, [sp, #12]
 1166              		.loc 1 211 0
 1167 0012 0022     		movs	r2, #0
 1168 0014 0092     		str	r2, [sp]
 1169 0016 4022     		movs	r2, #64
 1170 0018 FFF7FEFF 		bl	chThdCreateStatic
 1171              	.LVL125:
 1172              		.loc 1 212 0
 1173 001c 039A     		ldr	r2, [sp, #12]
 1174 001e 2368     		ldr	r3, [r4]
 1175 0020 9A42     		cmp	r2, r3
 1176 0022 01D1     		bne	.L94
 1177 0024 04B0     		add	sp, sp, #16
 1178              		.cfi_remember_state
 1179              		.cfi_def_cfa_offset 8
 1180              		@ sp needed
 1181 0026 10BD     		pop	{r4, pc}
 1182              	.L94:
 1183              		.cfi_restore_state
 1184 0028 FFF7FEFF 		bl	__stack_chk_fail
 1185              	.LVL126:
 1186              	.L96:
 1187              		.align	2
 1188              	.L95:
 1189 002c 00000000 		.word	__stack_chk_guard
 1190 0030 00000000 		.word	Obstacle
 1191 0034 00000000 		.word	.LANCHOR3
 1192              		.cfi_endproc
 1193              	.LFE267:
 1194              		.size	obstacle_start, .-obstacle_start
 1195              		.section	.text.print_current_angle,"ax",%progbits
 1196              		.align	1
 1197              		.p2align 4,,15
ARM GAS  C:\Users\Luca\AppData\Local\Temp\ccyCZv5c.s 			page 22


 1198              		.global	print_current_angle
 1199              		.syntax unified
 1200              		.thumb
 1201              		.thumb_func
 1202              		.fpu fpv4-sp-d16
 1203              		.type	print_current_angle, %function
 1204              	print_current_angle:
 1205              	.LFB268:
 1206              		.loc 1 226 0
 1207              		.cfi_startproc
 1208              		@ args = 0, pretend = 0, frame = 16
 1209              		@ frame_needed = 0, uses_anonymous_args = 0
 1210 0000 2DE9F047 		push	{r4, r5, r6, r7, r8, r9, r10, lr}
 1211              		.cfi_def_cfa_offset 32
 1212              		.cfi_offset 4, -32
 1213              		.cfi_offset 5, -28
 1214              		.cfi_offset 6, -24
 1215              		.cfi_offset 7, -20
 1216              		.cfi_offset 8, -16
 1217              		.cfi_offset 9, -12
 1218              		.cfi_offset 10, -8
 1219              		.cfi_offset 14, -4
 1220 0004 DFF8E0A0 		ldr	r10, .L101+16
 1221 0008 84B0     		sub	sp, sp, #16
 1222              		.cfi_def_cfa_offset 48
 1223              		.loc 1 226 0
 1224 000a DAF80030 		ldr	r3, [r10]
 1225 000e 0393     		str	r3, [sp, #12]
 1226              		.loc 1 227 0
 1227 0010 0620     		movs	r0, #6
 1228 0012 FFF7FEFF 		bl	obstacle_dist
 1229              	.LVL127:
 1230 0016 00F12304 		add	r4, r0, #35
 1231              		.loc 1 228 0
 1232 001a 0520     		movs	r0, #5
 1233 001c FFF7FEFF 		bl	obstacle_dist
 1234              	.LVL128:
 1235              		.loc 1 227 0
 1236 0020 24B2     		sxth	r4, r4
 1237              	.LVL129:
 1238              		.loc 1 228 0
 1239 0022 2330     		adds	r0, r0, #35
 1240 0024 05B2     		sxth	r5, r0
 1241              	.LVL130:
 1242              		.loc 1 231 0
 1243 0026 2046     		mov	r0, r4
 1244 0028 FFF7FEFF 		bl	__aeabi_i2d
 1245              	.LVL131:
 1246 002c 0646     		mov	r6, r0
 1247 002e 2846     		mov	r0, r5
 1248 0030 0F46     		mov	r7, r1
 1249 0032 FFF7FEFF 		bl	__aeabi_i2d
 1250              	.LVL132:
 1251 0036 3246     		mov	r2, r6
 1252 0038 CDE90001 		strd	r0, [sp]
 1253 003c 3B46     		mov	r3, r7
 1254 003e 3046     		mov	r0, r6
ARM GAS  C:\Users\Luca\AppData\Local\Temp\ccyCZv5c.s 			page 23


 1255 0040 3946     		mov	r1, r7
 1256 0042 FFF7FEFF 		bl	__aeabi_dmul
 1257              	.LVL133:
 1258 0046 DDE90023 		ldrd	r2, [sp]
 1259 004a 8046     		mov	r8, r0
 1260 004c 8946     		mov	r9, r1
 1261 004e 1046     		mov	r0, r2
 1262 0050 1946     		mov	r1, r3
 1263 0052 FFF7FEFF 		bl	__aeabi_dmul
 1264              	.LVL134:
 1265 0056 0246     		mov	r2, r0
 1266 0058 0B46     		mov	r3, r1
 1267 005a 4046     		mov	r0, r8
 1268 005c 4946     		mov	r1, r9
 1269 005e FFF7FEFF 		bl	__aeabi_dadd
 1270              	.LVL135:
 1271 0062 8046     		mov	r8, r0
 1272 0064 6000     		lsls	r0, r4, #1
 1273 0066 05FB00F0 		mul	r0, r5, r0
 1274 006a 8946     		mov	r9, r1
 1275 006c FFF7FEFF 		bl	__aeabi_i2d
 1276              	.LVL136:
 1277 0070 19A3     		adr	r3, .L101
 1278 0072 D3E90023 		ldrd	r2, [r3]
 1279 0076 FFF7FEFF 		bl	__aeabi_dmul
 1280              	.LVL137:
 1281 007a 0246     		mov	r2, r0
 1282 007c 0B46     		mov	r3, r1
 1283 007e 4046     		mov	r0, r8
 1284 0080 4946     		mov	r1, r9
 1285 0082 FFF7FEFF 		bl	__aeabi_dsub
 1286              	.LVL138:
 1287 0086 41EC100B 		vmov	d0, r0, r1
 1288 008a FFF7FEFF 		bl	sqrt
 1289              	.LVL139:
 1290 008e 14A3     		adr	r3, .L101+8
 1291 0090 D3E90023 		ldrd	r2, [r3]
 1292 0094 3046     		mov	r0, r6
 1293 0096 3946     		mov	r1, r7
 1294 0098 8DED000B 		vstr.64	d0, [sp]
 1295 009c FFF7FEFF 		bl	__aeabi_dmul
 1296              	.LVL140:
 1297 00a0 9DED000B 		vldr.64	d0, [sp]
 1298 00a4 53EC102B 		vmov	r2, r3, d0
 1299 00a8 FFF7FEFF 		bl	__aeabi_ddiv
 1300              	.LVL141:
 1301 00ac 41EC100B 		vmov	d0, r0, r1
 1302 00b0 FFF7FEFF 		bl	asin
 1303              	.LVL142:
 1304 00b4 51EC100B 		vmov	r0, r1, d0
 1305 00b8 FFF7FEFF 		bl	__aeabi_d2f
 1306              	.LVL143:
 1307              		.loc 1 234 0
 1308 00bc 039A     		ldr	r2, [sp, #12]
 1309 00be DAF80030 		ldr	r3, [r10]
 1310 00c2 9A42     		cmp	r2, r3
 1311 00c4 04D1     		bne	.L100
ARM GAS  C:\Users\Luca\AppData\Local\Temp\ccyCZv5c.s 			page 24


 1312 00c6 00EE100A 		vmov	s0, r0
 1313 00ca 04B0     		add	sp, sp, #16
 1314              		.cfi_remember_state
 1315              		.cfi_def_cfa_offset 32
 1316              		@ sp needed
 1317 00cc BDE8F087 		pop	{r4, r5, r6, r7, r8, r9, r10, pc}
 1318              	.LVL144:
 1319              	.L100:
 1320              		.cfi_restore_state
 1321 00d0 FFF7FEFF 		bl	__stack_chk_fail
 1322              	.LVL145:
 1323              	.L102:
 1324 00d4 AFF30080 		.align	3
 1325              	.L101:
 1326 00d8 36139DB4 		.word	-1264774346
 1327 00dc 9426E83F 		.word	1072178836
 1328 00e0 2AF43C81 		.word	-2126711766
 1329 00e4 6FFEE43F 		.word	1071971951
 1330 00e8 00000000 		.word	__stack_chk_guard
 1331              		.cfi_endproc
 1332              	.LFE268:
 1333              		.size	print_current_angle, .-print_current_angle
 1334              		.section	.text.pi_angle_regulator,"ax",%progbits
 1335              		.align	1
 1336              		.p2align 4,,15
 1337              		.global	pi_angle_regulator
 1338              		.syntax unified
 1339              		.thumb
 1340              		.thumb_func
 1341              		.fpu fpv4-sp-d16
 1342              		.type	pi_angle_regulator, %function
 1343              	pi_angle_regulator:
 1344              	.LFB269:
 1345              		.loc 1 237 0
 1346              		.cfi_startproc
 1347              		@ args = 0, pretend = 0, frame = 8
 1348              		@ frame_needed = 0, uses_anonymous_args = 0
 1349              	.LVL146:
 1350 0000 00B5     		push	{lr}
 1351              		.cfi_def_cfa_offset 4
 1352              		.cfi_offset 14, -4
 1353              		.loc 1 244 0
 1354 0002 30EE600A 		vsub.f32	s0, s0, s1
 1355              	.LVL147:
 1356              		.loc 1 246 0
 1357 0006 DFED1D7A 		vldr.32	s15, .L116
 1358              		.loc 1 237 0
 1359 000a 1D4B     		ldr	r3, .L116+4
 1360              		.loc 1 246 0
 1361 000c B0EEC07A 		vabs.f32	s14, s0
 1362              		.loc 1 237 0
 1363 0010 83B0     		sub	sp, sp, #12
 1364              		.cfi_def_cfa_offset 16
 1365              		.loc 1 246 0
 1366 0012 B4EEE77A 		vcmpe.f32	s14, s15
 1367              		.loc 1 237 0
 1368 0016 1A68     		ldr	r2, [r3]
ARM GAS  C:\Users\Luca\AppData\Local\Temp\ccyCZv5c.s 			page 25


 1369 0018 0192     		str	r2, [sp, #4]
 1370              	.LVL148:
 1371              		.loc 1 246 0
 1372 001a F1EE10FA 		vmrs	APSR_nzcv, FPSCR
 1373 001e 29D4     		bmi	.L110
 1374              		.loc 1 250 0
 1375 0020 184A     		ldr	r2, .L116+8
 1376              		.loc 1 253 0
 1377 0022 9FED197A 		vldr.32	s14, .L116+12
 1378              		.loc 1 250 0
 1379 0026 D2ED007A 		vldr.32	s15, [r2]
 1380 002a 70EE277A 		vadd.f32	s15, s0, s15
 1381              		.loc 1 253 0
 1382 002e F4EEC77A 		vcmpe.f32	s15, s14
 1383 0032 F1EE10FA 		vmrs	APSR_nzcv, FPSCR
 1384 0036 1ADC     		bgt	.L114
 1385              		.loc 1 255 0
 1386 0038 9FED147A 		vldr.32	s14, .L116+16
 1387 003c F4EEC77A 		vcmpe.f32	s15, s14
 1388 0040 F1EE10FA 		vmrs	APSR_nzcv, FPSCR
 1389              		.loc 1 250 0
 1390 0044 48BF     		it	mi
 1391 0046 F0EE477A 		vmovmi.f32	s15, s14
 1392 004a C2ED007A 		vstr.32	s15, [r2]
 1393              	.L107:
 1394              	.LVL149:
 1395              		.loc 1 259 0
 1396 004e DFED100A 		vldr.32	s1, .L116+20
 1397              	.LVL150:
 1398 0052 20EE200A 		vmul.f32	s0, s0, s1
 1399              	.LVL151:
 1400              		.loc 1 261 0
 1401 0056 BDEEC00A 		vcvt.s32.f32	s0, s0
 1402              	.LVL152:
 1403 005a 10EE102A 		vmov	r2, s0	@ int
 1404 005e 10B2     		sxth	r0, r2
 1405              	.LVL153:
 1406              	.L104:
 1407              		.loc 1 262 0
 1408 0060 019A     		ldr	r2, [sp, #4]
 1409 0062 1B68     		ldr	r3, [r3]
 1410 0064 9A42     		cmp	r2, r3
 1411 0066 07D1     		bne	.L115
 1412 0068 03B0     		add	sp, sp, #12
 1413              		.cfi_remember_state
 1414              		.cfi_def_cfa_offset 4
 1415              		@ sp needed
 1416 006a 5DF804FB 		ldr	pc, [sp], #4
 1417              	.LVL154:
 1418              	.L114:
 1419              		.cfi_restore_state
 1420              		.loc 1 254 0
 1421 006e 82ED007A 		vstr.32	s14, [r2]
 1422 0072 ECE7     		b	.L107
 1423              	.L110:
 1424              		.loc 1 247 0
 1425 0074 0020     		movs	r0, #0
ARM GAS  C:\Users\Luca\AppData\Local\Temp\ccyCZv5c.s 			page 26


 1426 0076 F3E7     		b	.L104
 1427              	.LVL155:
 1428              	.L115:
 1429              		.loc 1 262 0
 1430 0078 FFF7FEFF 		bl	__stack_chk_fail
 1431              	.LVL156:
 1432              	.L117:
 1433              		.align	2
 1434              	.L116:
 1435 007c C3B8323E 		.word	1043511491
 1436 0080 00000000 		.word	__stack_chk_guard
 1437 0084 00000000 		.word	.LANCHOR4
 1438 0088 0000B743 		.word	1136066560
 1439 008c 0000B7C3 		.word	-1011417088
 1440 0090 00007042 		.word	1114636288
 1441              		.cfi_endproc
 1442              	.LFE269:
 1443              		.size	pi_angle_regulator, .-pi_angle_regulator
 1444              		.section	.text.angle_regulator_start,"ax",%progbits
 1445              		.align	1
 1446              		.p2align 4,,15
 1447              		.global	angle_regulator_start
 1448              		.syntax unified
 1449              		.thumb
 1450              		.thumb_func
 1451              		.fpu fpv4-sp-d16
 1452              		.type	angle_regulator_start, %function
 1453              	angle_regulator_start:
 1454              	.LFB271:
 1455              		.loc 1 308 0
 1456              		.cfi_startproc
 1457              		@ args = 0, pretend = 0, frame = 8
 1458              		@ frame_needed = 0, uses_anonymous_args = 0
 1459 0000 10B5     		push	{r4, lr}
 1460              		.cfi_def_cfa_offset 8
 1461              		.cfi_offset 4, -8
 1462              		.cfi_offset 14, -4
 1463 0002 0A4C     		ldr	r4, .L122
 1464              		.loc 1 309 0
 1465 0004 0A4B     		ldr	r3, .L122+4
 1466              		.loc 1 308 0
 1467 0006 2268     		ldr	r2, [r4]
 1468              		.loc 1 309 0
 1469 0008 0A48     		ldr	r0, .L122+8
 1470              		.loc 1 308 0
 1471 000a 84B0     		sub	sp, sp, #16
 1472              		.cfi_def_cfa_offset 24
 1473              		.loc 1 309 0
 1474 000c 4FF41E71 		mov	r1, #632
 1475              		.loc 1 308 0
 1476 0010 0392     		str	r2, [sp, #12]
 1477              		.loc 1 309 0
 1478 0012 0022     		movs	r2, #0
 1479 0014 0092     		str	r2, [sp]
 1480 0016 4022     		movs	r2, #64
 1481 0018 FFF7FEFF 		bl	chThdCreateStatic
 1482              	.LVL157:
ARM GAS  C:\Users\Luca\AppData\Local\Temp\ccyCZv5c.s 			page 27


 1483              		.loc 1 310 0
 1484 001c 039A     		ldr	r2, [sp, #12]
 1485 001e 2368     		ldr	r3, [r4]
 1486 0020 9A42     		cmp	r2, r3
 1487 0022 01D1     		bne	.L121
 1488 0024 04B0     		add	sp, sp, #16
 1489              		.cfi_remember_state
 1490              		.cfi_def_cfa_offset 8
 1491              		@ sp needed
 1492 0026 10BD     		pop	{r4, pc}
 1493              	.L121:
 1494              		.cfi_restore_state
 1495 0028 FFF7FEFF 		bl	__stack_chk_fail
 1496              	.LVL158:
 1497              	.L123:
 1498              		.align	2
 1499              	.L122:
 1500 002c 00000000 		.word	__stack_chk_guard
 1501 0030 00000000 		.word	angle_regulator
 1502 0034 00000000 		.word	.LANCHOR5
 1503              		.cfi_endproc
 1504              	.LFE271:
 1505              		.size	angle_regulator_start, .-angle_regulator_start
 1506              		.section	.bss.sum_error.12802,"aw",%nobits
 1507              		.align	1
 1508              		.set	.LANCHOR1,. + 0
 1509              		.type	sum_error.12802, %object
 1510              		.size	sum_error.12802, 2
 1511              	sum_error.12802:
 1512 0000 0000     		.space	2
 1513              		.section	.bss.sum_error.12828,"aw",%nobits
 1514              		.align	2
 1515              		.set	.LANCHOR4,. + 0
 1516              		.type	sum_error.12828, %object
 1517              		.size	sum_error.12828, 4
 1518              	sum_error.12828:
 1519 0000 00000000 		.space	4
 1520              		.section	.bss.waObstacle,"aw",%nobits
 1521              		.align	3
 1522              		.set	.LANCHOR3,. + 0
 1523              		.type	waObstacle, %object
 1524              		.size	waObstacle, 632
 1525              	waObstacle:
 1526 0000 00000000 		.space	632
 1526      00000000 
 1526      00000000 
 1526      00000000 
 1526      00000000 
 1527              		.section	.bss.waangle_regulator,"aw",%nobits
 1528              		.align	3
 1529              		.set	.LANCHOR5,. + 0
 1530              		.type	waangle_regulator, %object
 1531              		.size	waangle_regulator, 632
 1532              	waangle_regulator:
 1533 0000 00000000 		.space	632
 1533      00000000 
 1533      00000000 
ARM GAS  C:\Users\Luca\AppData\Local\Temp\ccyCZv5c.s 			page 28


 1533      00000000 
 1533      00000000 
 1534              		.section	.rodata.__FUNCTION__.12810,"a",%progbits
 1535              		.align	2
 1536              		.set	.LANCHOR2,. + 0
 1537              		.type	__FUNCTION__.12810, %object
 1538              		.size	__FUNCTION__.12810, 9
 1539              	__FUNCTION__.12810:
 1540 0000 4F627374 		.ascii	"Obstacle\000"
 1540      61636C65 
 1540      00
 1541              		.section	.rodata.__FUNCTION__.12833,"a",%progbits
 1542              		.align	2
 1543              		.set	.LANCHOR0,. + 0
 1544              		.type	__FUNCTION__.12833, %object
 1545              		.size	__FUNCTION__.12833, 16
 1546              	__FUNCTION__.12833:
 1547 0000 616E676C 		.ascii	"angle_regulator\000"
 1547      655F7265 
 1547      67756C61 
 1547      746F7200 
 1548              		.text
 1549              	.Letext0:
 1550              		.file 3 "c:\\users\\luca\\desktop\\eclipse_e-puck2_win32_29_jan_2020\\eclipse_e-puck2\\tools\\gcc-
 1551              		.file 4 "c:\\users\\luca\\desktop\\eclipse_e-puck2_win32_29_jan_2020\\eclipse_e-puck2\\tools\\gcc-
 1552              		.file 5 "c:\\users\\luca\\desktop\\eclipse_e-puck2_win32_29_jan_2020\\eclipse_e-puck2\\tools\\gcc-
 1553              		.file 6 "c:\\users\\luca\\desktop\\eclipse_e-puck2_win32_29_jan_2020\\eclipse_e-puck2\\tools\\gcc-
 1554              		.file 7 "c:\\users\\luca\\desktop\\eclipse_e-puck2_win32_29_jan_2020\\eclipse_e-puck2\\tools\\gcc-
 1555              		.file 8 "c:\\users\\luca\\desktop\\eclipse_e-puck2_win32_29_jan_2020\\eclipse_e-puck2\\tools\\gcc-
 1556              		.file 9 "c:\\users\\luca\\desktop\\eclipse_e-puck2_win32_29_jan_2020\\eclipse_e-puck2\\tools\\gcc-
 1557              		.file 10 "c:\\users\\luca\\desktop\\eclipse_e-puck2_win32_29_jan_2020\\eclipse_e-puck2\\tools\\gcc
 1558              		.file 11 "../../lib/e-puck2_main-processor/ChibiOS//os/rt/ports/ARMCMx/compilers/GCC/chtypes.h"
 1559              		.file 12 "../../lib/e-puck2_main-processor/ChibiOS//os/rt/include/chsystypes.h"
 1560              		.file 13 "../../lib/e-puck2_main-processor/ChibiOS//os/rt/include/chschd.h"
 1561              		.file 14 "../../lib/e-puck2_main-processor/ChibiOS//os/ext/CMSIS/include/core_cm4.h"
 1562              		.file 15 "../../lib/e-puck2_main-processor/ChibiOS//os/ext/CMSIS/ST/system_stm32f4xx.h"
 1563              		.file 16 "../../lib/e-puck2_main-processor/ChibiOS//os/ext/CMSIS/ST/stm32f407xx.h"
 1564              		.file 17 "../../lib/e-puck2_main-processor/ChibiOS//os/rt/ports/ARMCMx/chcore.h"
 1565              		.file 18 "../../lib/e-puck2_main-processor/ChibiOS//os/rt/ports/ARMCMx/chcore_v7m.h"
 1566              		.file 19 "../../lib/e-puck2_main-processor/ChibiOS//os/rt/include/chdebug.h"
 1567              		.file 20 "../../lib/e-puck2_main-processor/ChibiOS//os/rt/include/chtm.h"
 1568              		.file 21 "../../lib/e-puck2_main-processor/ChibiOS//os/rt/include/chstats.h"
 1569              		.file 22 "../../lib/e-puck2_main-processor/ChibiOS//os/rt/include/chsem.h"
 1570              		.file 23 "../../lib/e-puck2_main-processor/ChibiOS//os/rt/include/chmtx.h"
 1571              		.file 24 "../../lib/e-puck2_main-processor/ChibiOS//os/rt/include/chbsem.h"
 1572              		.file 25 "../../lib/e-puck2_main-processor/ChibiOS//os/rt/include/chevents.h"
 1573              		.file 26 "../../lib/e-puck2_main-processor/ChibiOS//os/rt/include/chqueues.h"
 1574              		.file 27 "../../lib/e-puck2_main-processor/ChibiOS//os/hal/ports/STM32/STM32F4xx/stm32_dma.h"
 1575              		.file 28 "../../lib/e-puck2_main-processor/ChibiOS//os/hal/include/hal_ioblock.h"
 1576              		.file 29 "../../lib/e-puck2_main-processor/ChibiOS//os/hal/ports/STM32/LLD/GPIOv2/pal_lld.h"
 1577              		.file 30 "../../lib/e-puck2_main-processor/ChibiOS//os/hal/include/adc.h"
 1578              		.file 31 "../../lib/e-puck2_main-processor/ChibiOS//os/hal/ports/STM32/STM32F4xx/adc_lld.h"
 1579              		.file 32 "../../lib/e-puck2_main-processor/ChibiOS//os/hal/include/can.h"
 1580              		.file 33 "../../lib/e-puck2_main-processor/ChibiOS//os/hal/ports/STM32/LLD/can_lld.h"
 1581              		.file 34 "../../lib/e-puck2_main-processor/ChibiOS//os/hal/include/dac.h"
 1582              		.file 35 "../../lib/e-puck2_main-processor/ChibiOS//os/hal/ports/STM32/LLD/DACv1/dac_lld.h"
 1583              		.file 36 "../../lib/e-puck2_main-processor/ChibiOS//os/hal/include/ext.h"
ARM GAS  C:\Users\Luca\AppData\Local\Temp\ccyCZv5c.s 			page 29


 1584              		.file 37 "../../lib/e-puck2_main-processor/ChibiOS//os/hal/ports/STM32/LLD/ext_lld.h"
 1585              		.file 38 "../../lib/e-puck2_main-processor/ChibiOS//os/hal/include/gpt.h"
 1586              		.file 39 "../../lib/e-puck2_main-processor/ChibiOS//os/hal/ports/STM32/LLD/TIMv1/gpt_lld.h"
 1587              		.file 40 "../../lib/e-puck2_main-processor/ChibiOS//os/hal/ports/STM32/LLD/TIMv1/stm32_tim.h"
 1588              		.file 41 "../../lib/e-puck2_main-processor/ChibiOS//os/hal/include/i2c.h"
 1589              		.file 42 "../../lib/e-puck2_main-processor/ChibiOS//os/hal/ports/STM32/LLD/I2Cv1/i2c_lld.h"
 1590              		.file 43 "../../lib/e-puck2_main-processor/ChibiOS//os/hal/include/i2s.h"
 1591              		.file 44 "../../lib/e-puck2_main-processor/ChibiOS//os/hal/ports/STM32/LLD/SPIv1/i2s_lld.h"
 1592              		.file 45 "../../lib/e-puck2_main-processor/ChibiOS//os/hal/include/pwm.h"
 1593              		.file 46 "../../lib/e-puck2_main-processor/ChibiOS//os/hal/ports/STM32/LLD/TIMv1/pwm_lld.h"
 1594              		.file 47 "../../lib/e-puck2_main-processor/ChibiOS//os/hal/include/serial.h"
 1595              		.file 48 "../../lib/e-puck2_main-processor/ChibiOS//os/hal/ports/STM32/LLD/USARTv1/serial_lld.h"
 1596              		.file 49 "../../lib/e-puck2_main-processor/ChibiOS//os/hal/include/sdc.h"
 1597              		.file 50 "../../lib/e-puck2_main-processor/ChibiOS//os/hal/ports/STM32/LLD/sdc_lld.h"
 1598              		.file 51 "../../lib/e-puck2_main-processor/ChibiOS//os/hal/include/spi.h"
 1599              		.file 52 "../../lib/e-puck2_main-processor/ChibiOS//os/hal/ports/STM32/LLD/SPIv1/spi_lld.h"
 1600              		.file 53 "../../lib/e-puck2_main-processor/ChibiOS//os/hal/include/usb.h"
 1601              		.file 54 "../../lib/e-puck2_main-processor/ChibiOS//os/hal/ports/STM32/LLD/OTGv1/usb_lld.h"
 1602              		.file 55 "../../lib/e-puck2_main-processor/ChibiOS//os/hal/ports/STM32/LLD/OTGv1/stm32_otg.h"
 1603              		.file 56 "../../lib/e-puck2_main-processor/ChibiOS_ext/os/hal/include/../ports/STM32/STM32F4xx/dcm
 1604              		.file 57 "c:\\users\\luca\\desktop\\eclipse_e-puck2_win32_29_jan_2020\\eclipse_e-puck2\\tools\\gcc
 1605              		.file 58 "../../lib/e-puck2_main-processor/src/msgbus/messagebus.h"
 1606              		.file 59 "../../lib/e-puck2_main-processor/src/parameter/parameter.h"
 1607              		.file 60 "./main.h"
 1608              		.file 61 "../../lib/e-puck2_main-processor/ChibiOS//os/rt/include/chthreads.h"
 1609              		.file 62 "../../lib/e-puck2_main-processor/src/motors.h"
 1610              		.file 63 "../../lib/e-puck2_main-processor/src/sensors/proximity.h"